(dp0
S'cookies'
p1
(dp2
S'webwx_data_ticket'
p3
S'gSewdujQ9y1atAvZbzMdRVjE'
p4
sS'wxuin'
p5
S'1528367960'
p6
sS'webwxuvid'
p7
S'a4ed4441f2068335b111ffface9248de75d7bf1d3e5820c5590a77315af68183c1e83a972f09fca05270358d36a03f6f'
p8
sS'webwx_auth_ticket'
p9
S'CIsBEJiHkfYPGoABW48jVIitZUdICTeiJGLZ4JZKs6cDFxEdxqs34lbmXe5vERfQ8shqFQ+yZj+ZkVa5CQdJlRXVkn9Aij6kpTHttopdWSKGe4zBHwMW7YR8O7R/YVgoIGhYoGZtMqwfJz9aSzRXqDwqkok0dvJIoeDBtcAdIrno9cKLNya1AUcxvnw='
p10
sS'wxloadtime'
p11
S'1488694593'
p12
sS'wxsid'
p13
S'4UwN0y7vYnzm2dPu'
p14
sS'mm_lang'
p15
S'zh_CN'
p16
ssS'version'
p17
S'1.2.23'
p18
sS'storage'
p19
(dp20
S'userName'
p21
V@5a537fad437e95462bf04aecddbdf066
p22
sS'lastInputUserName'
p23
NsS'memberList'
p24
(lp25
(dp26
S'UserName'
p27
V@5a537fad437e95462bf04aecddbdf066
p28
sS'City'
p29
V\u82cf\u5dde
p30
sS'DisplayName'
p31
S''
p32
sS'UniFriend'
p33
I0
sS'MemberList'
p34
(lp35
sS'PYQuanPin'
p36
VJason
p37
sS'RemarkPYInitial'
p38
V
p39
sS'Sex'
p40
I1
sS'AppAccountFlag'
p41
I0
sS'VerifyFlag'
p42
I0
sS'Province'
p43
V\u6c5f\u82cf
p44
sS'KeyWord'
p45
Vjas
p46
sS'RemarkName'
p47
g39
sS'PYInitial'
p48
VJASON
p49
sVIsOwner
p50
I0
sS'ChatRoomId'
p51
I0
sS'HideInputBarFlag'
p52
I0
sVHeadImgFlag
p53
I1
sS'EncryChatRoomId'
p54
g32
sS'AttrStatus'
p55
I229735
sVWebWxPluginSwitch
p56
I0
sS'SnsFlag'
p57
I49
sS'MemberCount'
p58
I0
sS'OwnerUin'
p59
I0
sS'Alias'
p60
g32
sS'Signature'
p61
g39
sS'ContactFlag'
p62
I7
sS'NickName'
p63
VJason
p64
sS'RemarkPYQuanPin'
p65
g39
sS'HeadImgUrl'
p66
V/cgi-bin/mmwebwx-bin/webwxgeticon?seq=621029568&username=@5a537fad437e95462bf04aecddbdf066&skey=@crypt_19753c23_05fa7a994bb1092bdd72a1191a0443aa
p67
sS'Uin'
p68
I1528367960
sS'StarFriend'
p69
I0
sS'Statues'
p70
I0
sa(dp71
VUserName
p72
V@e323614e46d702ea723754c75a3b022abfa3a2b8c04e7944878b6e5c5a05c777
p73
sVCity
p74
V\u82cf\u5dde
p75
sVDisplayName
p76
g39
sVUniFriend
p77
I0
sVMemberList
p78
(lp79
sVPYQuanPin
p80
Vjingzi
p81
sVRemarkPYInitial
p82
g39
sVUin
p83
I0
sVAppAccountFlag
p84
I0
sVVerifyFlag
p85
I0
sVProvince
p86
V\u6c5f\u82cf
p87
sVKeyWord
p88
g39
sVRemarkName
p89
g39
sVPYInitial
p90
VJZ
p91
sVChatRoomId
p92
I0
sVIsOwner
p93
I0
sVHideInputBarFlag
p94
I0
sVEncryChatRoomId
p95
g39
sVAttrStatus
p96
I33665127
sVSnsFlag
p97
I17
sVMemberCount
p98
I0
sVOwnerUin
p99
I0
sVAlias
p100
Vclaregang
p101
sVSignature
p102
V\u4e00\u6253\u6ce2\u6539\u52a8\u6b63\u5728\u63a5\u8fd1\uff01\uff01\uff01
p103
sVContactFlag
p104
I1
sVNickName
p105
V\u955c\u5b50
p106
sVRemarkPYQuanPin
p107
g39
sVHeadImgUrl
p108
V/cgi-bin/mmwebwx-bin/webwxgeticon?seq=637721142&username=@e323614e46d702ea723754c75a3b022abfa3a2b8c04e7944878b6e5c5a05c777&skey=@crypt_19753c23_05fa7a994bb1092bdd72a1191a0443aa
p109
sVSex
p110
I1
sVStarFriend
p111
I0
sVStatues
p112
I0
sa(dp113
VUserName
p114
V@561ae83135162fbb3f348bb0d58dadad
p115
sVCity
p116
V\u516d\u5b89
p117
sVDisplayName
p118
g39
sVUniFriend
p119
I0
sVMemberList
p120
(lp121
sVPYQuanPin
p122
Vyanxiaofeng
p123
sVRemarkPYInitial
p124
g39
sVUin
p125
I0
sVAppAccountFlag
p126
I0
sVVerifyFlag
p127
I0
sVProvince
p128
V\u5b89\u5fbd
p129
sVKeyWord
p130
Vyxf
p131
sVRemarkName
p132
g39
sVPYInitial
p133
VYXF
p134
sVChatRoomId
p135
I0
sVIsOwner
p136
I0
sVHideInputBarFlag
p137
I0
sVEncryChatRoomId
p138
g39
sVAttrStatus
p139
I102439
sVSnsFlag
p140
I49
sVMemberCount
p141
I0
sVOwnerUin
p142
I0
sVAlias
p143
g39
sVSignature
p144
g39
sVContactFlag
p145
I1
sVNickName
p146
V\u4e25\u6653\u5cf0
p147
sVRemarkPYQuanPin
p148
g39
sVHeadImgUrl
p149
V/cgi-bin/mmwebwx-bin/webwxgeticon?seq=640320435&username=@561ae83135162fbb3f348bb0d58dadad&skey=@crypt_19753c23_05fa7a994bb1092bdd72a1191a0443aa
p150
sVSex
p151
I1
sVStarFriend
p152
I0
sVStatues
p153
I0
sa(dp154
VUserName
p155
V@ce66d5500b8ae5b9a42fa159279e90ec
p156
sVCity
p157
V\u4e3d\u6c34
p158
sVDisplayName
p159
g39
sVUniFriend
p160
I0
sVMemberList
p161
(lp162
sVPYQuanPin
p163
Vjinyuanbao
p164
sVRemarkPYInitial
p165
g39
sVUin
p166
I0
sVAppAccountFlag
p167
I0
sVVerifyFlag
p168
I0
sVProvince
p169
V\u6d59\u6c5f
p170
sVKeyWord
p171
Vjin
p172
sVRemarkName
p173
g39
sVPYInitial
p174
VJYB
p175
sVChatRoomId
p176
I0
sVIsOwner
p177
I0
sVHideInputBarFlag
p178
I0
sVEncryChatRoomId
p179
g39
sVAttrStatus
p180
I233639
sVSnsFlag
p181
I17
sVMemberCount
p182
I0
sVOwnerUin
p183
I0
sVAlias
p184
Vlsjinyan
p185
sVSignature
p186
V\u552f\u6709\u5fc3\u9759\u624d\u80fd\u9047\u89c1\u6700\u771f\u5b9e\u7684\u81ea\u5df1
p187
sVContactFlag
p188
I1
sVNickName
p189
V\u91d1\u5143\u5b9d
p190
sVRemarkPYQuanPin
p191
g39
sVHeadImgUrl
p192
V/cgi-bin/mmwebwx-bin/webwxgeticon?seq=632631444&username=@ce66d5500b8ae5b9a42fa159279e90ec&skey=@crypt_19753c23_05fa7a994bb1092bdd72a1191a0443aa
p193
sVSex
p194
I2
sVStarFriend
p195
I0
sVStatues
p196
I0
sa(dp197
VUserName
p198
V@10f9c09edbc71ef4526738a4776f320b5e1f0863555835ac2a280f93d00734aa
p199
sVCity
p200
g39
sVDisplayName
p201
g39
sVUniFriend
p202
I0
sVMemberList
p203
(lp204
sVPYQuanPin
p205
Vzhangchao
p206
sVRemarkPYInitial
p207
g39
sVUin
p208
I0
sVAppAccountFlag
p209
I0
sVVerifyFlag
p210
I0
sVProvince
p211
VCentral and Western
p212
sVKeyWord
p213
g39
sVRemarkName
p214
g39
sVPYInitial
p215
VZC
p216
sVChatRoomId
p217
I0
sVIsOwner
p218
I0
sVHideInputBarFlag
p219
I0
sVEncryChatRoomId
p220
g39
sVAttrStatus
p221
I100905063
sVSnsFlag
p222
I49
sVMemberCount
p223
I0
sVOwnerUin
p224
I0
sVAlias
p225
g39
sVSignature
p226
g39
sVContactFlag
p227
I1
sVNickName
p228
V\u5f20\u8d85
p229
sVRemarkPYQuanPin
p230
g39
sVHeadImgUrl
p231
V/cgi-bin/mmwebwx-bin/webwxgeticon?seq=620631359&username=@10f9c09edbc71ef4526738a4776f320b5e1f0863555835ac2a280f93d00734aa&skey=@crypt_19753c23_05fa7a994bb1092bdd72a1191a0443aa
p232
sVSex
p233
I1
sVStarFriend
p234
I0
sVStatues
p235
I0
sa(dp236
VUserName
p237
V@1ae589e0320d44579c19acdec0535d55
p238
sVCity
p239
g39
sVDisplayName
p240
g39
sVUniFriend
p241
I0
sVMemberList
p242
(lp243
sVPYQuanPin
p244
Vxuxu
p245
sVRemarkPYInitial
p246
g39
sVUin
p247
I0
sVAppAccountFlag
p248
I0
sVVerifyFlag
p249
I0
sVProvince
p250
V\u5b89\u5fbd
p251
sVKeyWord
p252
Vmma
p253
sVRemarkName
p254
g39
sVPYInitial
p255
VXX
p256
sVChatRoomId
p257
I0
sVIsOwner
p258
I0
sVHideInputBarFlag
p259
I0
sVEncryChatRoomId
p260
g39
sVAttrStatus
p261
I4197
sVSnsFlag
p262
I17
sVMemberCount
p263
I0
sVOwnerUin
p264
I0
sVAlias
p265
g39
sVSignature
p266
g39
sVContactFlag
p267
I1
sVNickName
p268
V\u5f90\u5f90
p269
sVRemarkPYQuanPin
p270
g39
sVHeadImgUrl
p271
V/cgi-bin/mmwebwx-bin/webwxgeticon?seq=641114453&username=@1ae589e0320d44579c19acdec0535d55&skey=@crypt_19753c23_05fa7a994bb1092bdd72a1191a0443aa
p272
sVSex
p273
I1
sVStarFriend
p274
I0
sVStatues
p275
I0
sa(dp276
VUserName
p277
V@c0d77b1d1fe9b6de3894962bc7aa9e85
p278
sVCity
p279
V\u5408\u80a5
p280
sVDisplayName
p281
g39
sVUniFriend
p282
I0
sVMemberList
p283
(lp284
sVPYQuanPin
p285
Vzhuguanyuwenspanclassemojiemoji1f381span
p286
sVRemarkPYInitial
p287
g39
sVUin
p288
I0
sVAppAccountFlag
p289
I0
sVVerifyFlag
p290
I0
sVProvince
p291
V\u5b89\u5fbd
p292
sVKeyWord
p293
Vgw7
p294
sVRemarkName
p295
g39
sVPYInitial
p296
VZGYWSPANCLASSEMOJIEMOJI1F381SPAN
p297
sVChatRoomId
p298
I0
sVIsOwner
p299
I0
sVHideInputBarFlag
p300
I0
sVEncryChatRoomId
p301
g39
sVAttrStatus
p302
I106751
sVSnsFlag
p303
I49
sVMemberCount
p304
I0
sVOwnerUin
p305
I0
sVAlias
p306
g39
sVSignature
p307
V\u8d8a\u6765\u8d8a\u770b\u4e0d\u61c2
p308
sVContactFlag
p309
I1
sVNickName
p310
V\u7af9\u89c2\u96e8\u95fb\U0001f381
p311
sVRemarkPYQuanPin
p312
g39
sVHeadImgUrl
p313
V/cgi-bin/mmwebwx-bin/webwxgeticon?seq=640320436&username=@c0d77b1d1fe9b6de3894962bc7aa9e85&skey=@crypt_19753c23_05fa7a994bb1092bdd72a1191a0443aa
p314
sVSex
p315
I2
sVStarFriend
p316
I0
sVStatues
p317
I0
sa(dp318
VUserName
p319
V@8036c3aee1314d6890e2d3445dcba33e6688cf66684e3b8107ca57c9003a6955
p320
sVCity
p321
V\u82cf\u5dde
p322
sVDisplayName
p323
g39
sVUniFriend
p324
I0
sVMemberList
p325
(lp326
sVPYQuanPin
p327
VWangQ
p328
sVRemarkPYInitial
p329
VWQ
p330
sVUin
p331
I0
sVAppAccountFlag
p332
I0
sVVerifyFlag
p333
I0
sVProvince
p334
V\u6c5f\u82cf
p335
sVKeyWord
p336
g39
sVRemarkName
p337
V\u738b\u6e05
p338
sVPYInitial
p339
VWANGQ
p340
sVChatRoomId
p341
I0
sVIsOwner
p342
I0
sVHideInputBarFlag
p343
I0
sVEncryChatRoomId
p344
g39
sVAttrStatus
p345
I4197
sVSnsFlag
p346
I17
sVMemberCount
p347
I0
sVOwnerUin
p348
I0
sVAlias
p349
Vwq815638752
p350
sVSignature
p351
g39
sVContactFlag
p352
I1
sVNickName
p353
VWangQ
p354
sVRemarkPYQuanPin
p355
Vwangqing
p356
sVHeadImgUrl
p357
V/cgi-bin/mmwebwx-bin/webwxgeticon?seq=636017983&username=@8036c3aee1314d6890e2d3445dcba33e6688cf66684e3b8107ca57c9003a6955&skey=@crypt_19753c23_05fa7a994bb1092bdd72a1191a0443aa
p358
sVSex
p359
I1
sVStarFriend
p360
I0
sVStatues
p361
I0
sa(dp362
VUserName
p363
V@53120976378353da497f0602fa0976972e4e61a79b49fd146c7cebb891442f5d
p364
sVCity
p365
V\u957f\u6c99
p366
sVDisplayName
p367
g39
sVUniFriend
p368
I0
sVMemberList
p369
(lp370
sVPYQuanPin
p371
Vliyan
p372
sVRemarkPYInitial
p373
g39
sVUin
p374
I0
sVAppAccountFlag
p375
I0
sVVerifyFlag
p376
I0
sVProvince
p377
V\u6e56\u5357
p378
sVKeyWord
p379
g39
sVRemarkName
p380
g39
sVPYInitial
p381
VLY
p382
sVChatRoomId
p383
I0
sVIsOwner
p384
I0
sVHideInputBarFlag
p385
I0
sVEncryChatRoomId
p386
g39
sVAttrStatus
p387
I4645
sVSnsFlag
p388
I17
sVMemberCount
p389
I0
sVOwnerUin
p390
I0
sVAlias
p391
VLiyan_Daniel
p392
sVSignature
p393
g39
sVContactFlag
p394
I1
sVNickName
p395
V\u674e\u5ef6
p396
sVRemarkPYQuanPin
p397
g39
sVHeadImgUrl
p398
V/cgi-bin/mmwebwx-bin/webwxgeticon?seq=660985634&username=@53120976378353da497f0602fa0976972e4e61a79b49fd146c7cebb891442f5d&skey=@crypt_19753c23_05fa7a994bb1092bdd72a1191a0443aa
p399
sVSex
p400
I1
sVStarFriend
p401
I0
sVStatues
p402
I0
sa(dp403
VUserName
p404
V@9d66417ca79de426d1f33e096253d5d0
p405
sVCity
p406
V\u829c\u6e56
p407
sVDisplayName
p408
g39
sVUniFriend
p409
I0
sVMemberList
p410
(lp411
sVPYQuanPin
p412
Vwanyu
p413
sVRemarkPYInitial
p414
g39
sVUin
p415
I0
sVAppAccountFlag
p416
I0
sVVerifyFlag
p417
I0
sVProvince
p418
V\u5b89\u5fbd
p419
sVKeyWord
p420
Vwan
p421
sVRemarkName
p422
g39
sVPYInitial
p423
VWY
p424
sVChatRoomId
p425
I0
sVIsOwner
p426
I0
sVHideInputBarFlag
p427
I0
sVEncryChatRoomId
p428
g39
sVAttrStatus
p429
I5175
sVSnsFlag
p430
I17
sVMemberCount
p431
I0
sVOwnerUin
p432
I0
sVAlias
p433
g39
sVSignature
p434
VFind  me\uff01
p435
sVContactFlag
p436
I1
sVNickName
p437
V\u4e07\u79b9
p438
sVRemarkPYQuanPin
p439
g39
sVHeadImgUrl
p440
V/cgi-bin/mmwebwx-bin/webwxgeticon?seq=645303220&username=@9d66417ca79de426d1f33e096253d5d0&skey=@crypt_19753c23_05fa7a994bb1092bdd72a1191a0443aa
p441
sVSex
p442
I1
sVStarFriend
p443
I0
sVStatues
p444
I0
sa(dp445
VUserName
p446
V@f19816545b48986a1218bf60739ed06c
p447
sVCity
p448
V\u829c\u6e56
p449
sVDisplayName
p450
g39
sVUniFriend
p451
I0
sVMemberList
p452
(lp453
sVPYQuanPin
p454
Vmogafeizuotianpindebafenqingniangezizhu
p455
sVRemarkPYInitial
p456
g39
sVUin
p457
I0
sVAppAccountFlag
p458
I0
sVVerifyFlag
p459
I0
sVProvince
p460
V\u5b89\u5fbd
p461
sVKeyWord
p462
Vzyl
p463
sVRemarkName
p464
g39
sVPYInitial
p465
VMGFZTPDBFQNGZZ
p466
sVChatRoomId
p467
I0
sVIsOwner
p468
I0
sVHideInputBarFlag
p469
I0
sVEncryChatRoomId
p470
g39
sVAttrStatus
p471
I123775
sVSnsFlag
p472
I49
sVMemberCount
p473
I0
sVOwnerUin
p474
I0
sVAlias
p475
g39
sVSignature
p476
V\u5475\u5475
p477
sVContactFlag
p478
I3
sVNickName
p479
V\u78e8\u5496\u5561\u505a\u751c\u54c1\u7684\u516b\u5206\u9752\u5e74\u683c\u5b50\u732a
p480
sVRemarkPYQuanPin
p481
g39
sVHeadImgUrl
p482
V/cgi-bin/mmwebwx-bin/webwxgeticon?seq=660992267&username=@f19816545b48986a1218bf60739ed06c&skey=@crypt_19753c23_05fa7a994bb1092bdd72a1191a0443aa
p483
sVSex
p484
I1
sVStarFriend
p485
I0
sVStatues
p486
I0
sa(dp487
VUserName
p488
V@6854dc7e45a4052ccc920b879a6f49cb
p489
sVCity
p490
g39
sVDisplayName
p491
g39
sVUniFriend
p492
I0
sVMemberList
p493
(lp494
sVPYQuanPin
p495
VV
p496
sVRemarkPYInitial
p497
g39
sVUin
p498
I0
sVAppAccountFlag
p499
I0
sVVerifyFlag
p500
I0
sVProvince
p501
g39
sVKeyWord
p502
Vmyb
p503
sVRemarkName
p504
g39
sVPYInitial
p505
g496
sVChatRoomId
p506
I0
sVIsOwner
p507
I0
sVHideInputBarFlag
p508
I0
sVEncryChatRoomId
p509
g39
sVAttrStatus
p510
I67207207
sVSnsFlag
p511
I49
sVMemberCount
p512
I0
sVOwnerUin
p513
I0
sVAlias
p514
g39
sVSignature
p515
g39
sVContactFlag
p516
I1
sVNickName
p517
g496
sVRemarkPYQuanPin
p518
g39
sVHeadImgUrl
p519
V/cgi-bin/mmwebwx-bin/webwxgeticon?seq=660992308&username=@6854dc7e45a4052ccc920b879a6f49cb&skey=@crypt_19753c23_05fa7a994bb1092bdd72a1191a0443aa
p520
sVSex
p521
I1
sVStarFriend
p522
I0
sVStatues
p523
I0
sa(dp524
VUserName
p525
V@82c268e0db2d6a6ae3fa9605218c5f2b
p526
sVCity
p527
V\u5408\u80a5
p528
sVDisplayName
p529
g39
sVUniFriend
p530
I0
sVMemberList
p531
(lp532
sVPYQuanPin
p533
Vlipapa?
p534
sVRemarkPYInitial
p535
g39
sVUin
p536
I0
sVAppAccountFlag
p537
I0
sVVerifyFlag
p538
I0
sVProvince
p539
V\u5b89\u5fbd
p540
sVKeyWord
p541
Vlqq
p542
sVRemarkName
p543
g39
sVPYInitial
p544
VLPP?
p545
sVChatRoomId
p546
I0
sVIsOwner
p547
I0
sVHideInputBarFlag
p548
I0
sVEncryChatRoomId
p549
g39
sVAttrStatus
p550
I16877047
sVSnsFlag
p551
I49
sVMemberCount
p552
I0
sVOwnerUin
p553
I0
sVAlias
p554
g39
sVSignature
p555
VTo be a better me.
p556
sVContactFlag
p557
I3
sVNickName
p558
V\u68a8\u722c\u722c\U0001f350
p559
sVRemarkPYQuanPin
p560
g39
sVHeadImgUrl
p561
V/cgi-bin/mmwebwx-bin/webwxgeticon?seq=634300891&username=@82c268e0db2d6a6ae3fa9605218c5f2b&skey=@crypt_19753c23_05fa7a994bb1092bdd72a1191a0443aa
p562
sVSex
p563
I2
sVStarFriend
p564
I0
sVStatues
p565
I0
sa(dp566
VUserName
p567
V@fe90565069f1f596a281d6d45db51688
p568
sVCity
p569
V\u829c\u6e56
p570
sVDisplayName
p571
g39
sVUniFriend
p572
I0
sVMemberList
p573
(lp574
sVPYQuanPin
p575
VWL
p576
sVRemarkPYInitial
p577
g39
sVUin
p578
I0
sVAppAccountFlag
p579
I0
sVVerifyFlag
p580
I0
sVProvince
p581
V\u5b89\u5fbd
p582
sVKeyWord
p583
Vwul
p584
sVRemarkName
p585
g39
sVPYInitial
p586
VWL
p587
sVChatRoomId
p588
I0
sVIsOwner
p589
I0
sVHideInputBarFlag
p590
I0
sVEncryChatRoomId
p591
g39
sVAttrStatus
p592
I106623
sVSnsFlag
p593
I49
sVMemberCount
p594
I0
sVOwnerUin
p595
I0
sVAlias
p596
g39
sVSignature
p597
V       \u85b0\u8863\u8349\u60c5\u7ed3\u3002\u3002\u3002
p598
sVContactFlag
p599
I65537
sVNickName
p600
V\u2642\u3047W\u30b8L\u3089\u2121
p601
sVRemarkPYQuanPin
p602
g39
sVHeadImgUrl
p603
V/cgi-bin/mmwebwx-bin/webwxgeticon?seq=632638320&username=@fe90565069f1f596a281d6d45db51688&skey=@crypt_19753c23_05fa7a994bb1092bdd72a1191a0443aa
p604
sVSex
p605
I2
sVStarFriend
p606
I0
sVStatues
p607
I0
sa(dp608
VUserName
p609
V@bdec775ce46dd17e49d79233009fe1af22eb8eb0ecbd1616b9027d62bb42275a
p610
sVCity
p611
V\u957f\u6c99
p612
sVDisplayName
p613
g39
sVUniFriend
p614
I0
sVMemberList
p615
(lp616
sVPYQuanPin
p617
Vgechidebachichicai
p618
sVRemarkPYInitial
p619
g39
sVUin
p620
I0
sVAppAccountFlag
p621
I0
sVVerifyFlag
p622
I0
sVProvince
p623
V\u6e56\u5357
p624
sVKeyWord
p625
g39
sVRemarkName
p626
g39
sVPYInitial
p627
VGCDBCCC
p628
sVChatRoomId
p629
I0
sVIsOwner
p630
I0
sVHideInputBarFlag
p631
I0
sVEncryChatRoomId
p632
g39
sVAttrStatus
p633
I4198509
sVSnsFlag
p634
I17
sVMemberCount
p635
I0
sVOwnerUin
p636
I0
sVAlias
p637
Vzhouweiisme1
p638
sVSignature
p639
V\u767d\u5203\u52a0\u80f8\uff0c\u4e0d\u6551\u6d41\u77e2\u3002\u547c
p640
sVContactFlag
p641
I1
sVNickName
p642
V\u54e5\u5f73\u5fb7\u5df4\u8d64\u8d64\u731c
p643
sVRemarkPYQuanPin
p644
g39
sVHeadImgUrl
p645
V/cgi-bin/mmwebwx-bin/webwxgeticon?seq=621808371&username=@bdec775ce46dd17e49d79233009fe1af22eb8eb0ecbd1616b9027d62bb42275a&skey=@crypt_19753c23_05fa7a994bb1092bdd72a1191a0443aa
p646
sVSex
p647
I1
sVStarFriend
p648
I0
sVStatues
p649
I0
sa(dp650
VUserName
p651
V@dbb9546396d8d16d8ebbe46f6ed6f6bb8a17aff8e95054fa84e5f6f77962a3fe
p652
sVCity
p653
g39
sVDisplayName
p654
g39
sVUniFriend
p655
I0
sVMemberList
p656
(lp657
sVPYQuanPin
p658
Vwenjunwendy
p659
sVRemarkPYInitial
p660
VYWJ
p661
sVUin
p662
I0
sVAppAccountFlag
p663
I0
sVVerifyFlag
p664
I0
sVProvince
p665
VTokyo
p666
sVKeyWord
p667
g39
sVRemarkName
p668
V\u6768\u6587\u541b
p669
sVPYInitial
p670
VWJWENDY
p671
sVChatRoomId
p672
I0
sVIsOwner
p673
I0
sVHideInputBarFlag
p674
I0
sVEncryChatRoomId
p675
g39
sVAttrStatus
p676
I34050081
sVSnsFlag
p677
I49
sVMemberCount
p678
I0
sVOwnerUin
p679
I0
sVAlias
p680
Vyangwenjunya
p681
sVSignature
p682
Vchristian<span class="emoji emoji1f33f"></span> \u5c45\u4f4f\u4e1c\u4eac \u793e\u4f1a\u5b66\u7855\u58eb \u6444\u5f71\u4eba<span class="emoji emoji1f4f7"></span>
p683
sVContactFlag
p684
I1
sVNickName
p685
V\u6587\u541b wendy
p686
sVRemarkPYQuanPin
p687
Vyangwenjun
p688
sVHeadImgUrl
p689
V/cgi-bin/mmwebwx-bin/webwxgeticon?seq=660992040&username=@dbb9546396d8d16d8ebbe46f6ed6f6bb8a17aff8e95054fa84e5f6f77962a3fe&skey=@crypt_19753c23_05fa7a994bb1092bdd72a1191a0443aa
p690
sVSex
p691
I2
sVStarFriend
p692
I0
sVStatues
p693
I0
sa(dp694
VUserName
p695
V@4a29504455f74bd1eed234a7492a09ed816cc255d8faa70df4dc1117bb0ff6ac
p696
sVCity
p697
g39
sVDisplayName
p698
g39
sVUniFriend
p699
I0
sVMemberList
p700
(lp701
sVPYQuanPin
p702
Vspanclassemojiemoji1f433spanwendisijiaribendaigou
p703
sVRemarkPYInitial
p704
g39
sVUin
p705
I0
sVAppAccountFlag
p706
I0
sVVerifyFlag
p707
I0
sVProvince
p708
VTokyo
p709
sVKeyWord
p710
g39
sVRemarkName
p711
g39
sVPYInitial
p712
VSPANCLASSEMOJIEMOJI1F433SPANWDSJRBDG
p713
sVChatRoomId
p714
I0
sVIsOwner
p715
I0
sVHideInputBarFlag
p716
I0
sVEncryChatRoomId
p717
g39
sVAttrStatus
p718
I34052129
sVSnsFlag
p719
I49
sVMemberCount
p720
I0
sVOwnerUin
p721
I0
sVAlias
p722
Vywenjun9
p723
sVSignature
p724
V<span class="emoji emoji1f38f"></span> \u4e1c\u4eac\u6444\u5f71\u5e08 \u56db\u94bb\u6dd8\u5b9d\u5e97 pola\u65e5\u672c\u987e\u95ee
p725
sVContactFlag
p726
I65537
sVNickName
p727
V\U0001f433 \u6e29\u8fea\u79c1\u5bb6\u65e5\u672c\u4ee3\u8d2d 
p728
sVRemarkPYQuanPin
p729
g39
sVHeadImgUrl
p730
V/cgi-bin/mmwebwx-bin/webwxgeticon?seq=661001882&username=@4a29504455f74bd1eed234a7492a09ed816cc255d8faa70df4dc1117bb0ff6ac&skey=@crypt_19753c23_05fa7a994bb1092bdd72a1191a0443aa
p731
sVSex
p732
I2
sVStarFriend
p733
I0
sVStatues
p734
I0
sa(dp735
VUserName
p736
V@d62ec80127895665b7c45c543681427c
p737
sVCity
p738
V\u6b66\u6c49
p739
sVDisplayName
p740
g39
sVUniFriend
p741
I0
sVMemberList
p742
(lp743
sVPYQuanPin
p744
VFengfeng
p745
sVRemarkPYInitial
p746
g39
sVUin
p747
I0
sVAppAccountFlag
p748
I0
sVVerifyFlag
p749
I0
sVProvince
p750
V\u6e56\u5317
p751
sVKeyWord
p752
Vfen
p753
sVRemarkName
p754
g39
sVPYInitial
p755
VFENGFENG
p756
sVChatRoomId
p757
I0
sVIsOwner
p758
I0
sVHideInputBarFlag
p759
I0
sVEncryChatRoomId
p760
g39
sVAttrStatus
p761
I102439
sVSnsFlag
p762
I1
sVMemberCount
p763
I0
sVOwnerUin
p764
I0
sVAlias
p765
g39
sVSignature
p766
VOh Yeah.!
p767
sVContactFlag
p768
I1
sVNickName
p769
VFengfeng
p770
sVRemarkPYQuanPin
p771
g39
sVHeadImgUrl
p772
V/cgi-bin/mmwebwx-bin/webwxgeticon?seq=661003070&username=@d62ec80127895665b7c45c543681427c&skey=@crypt_19753c23_05fa7a994bb1092bdd72a1191a0443aa
p773
sVSex
p774
I1
sVStarFriend
p775
I0
sVStatues
p776
I0
sa(dp777
VUserName
p778
V@c6269721ba2b2e6d4453a8bddccacc99
p779
sVCity
p780
V\u626c\u5dde
p781
sVDisplayName
p782
g39
sVUniFriend
p783
I0
sVMemberList
p784
(lp785
sVPYQuanPin
p786
VTT
p787
sVRemarkPYInitial
p788
VWT
p789
sVUin
p790
I0
sVAppAccountFlag
p791
I0
sVVerifyFlag
p792
I0
sVProvince
p793
V\u6c5f\u82cf
p794
sVKeyWord
p795
Vwt8
p796
sVRemarkName
p797
V\u738b\u6d9b
p798
sVPYInitial
p799
VTT
p800
sVChatRoomId
p801
I0
sVIsOwner
p802
I0
sVHideInputBarFlag
p803
I0
sVEncryChatRoomId
p804
g39
sVAttrStatus
p805
I233511
sVSnsFlag
p806
I49
sVMemberCount
p807
I0
sVOwnerUin
p808
I0
sVAlias
p809
VAlvin_Wong_W_T
p810
sVSignature
p811
g39
sVContactFlag
p812
I5
sVNickName
p813
V\u300cT.T\u300d
p814
sVRemarkPYQuanPin
p815
Vwangtao
p816
sVHeadImgUrl
p817
V/cgi-bin/mmwebwx-bin/webwxgeticon?seq=661003073&username=@c6269721ba2b2e6d4453a8bddccacc99&skey=@crypt_19753c23_05fa7a994bb1092bdd72a1191a0443aa
p818
sVSex
p819
I1
sVStarFriend
p820
I0
sVStatues
p821
I0
sa(dp822
VUserName
p823
V@f7d01f945d6962e6dccaf91dbe3488e2a2c11a08e40724fdb57758be13d093b7
p824
sVCity
p825
V\u957f\u6c99
p826
sVDisplayName
p827
g39
sVUniFriend
p828
I0
sVMemberList
p829
(lp830
sVPYQuanPin
p831
VErebus
p832
sVRemarkPYInitial
p833
g39
sVUin
p834
I0
sVAppAccountFlag
p835
I0
sVVerifyFlag
p836
I0
sVProvince
p837
V\u6e56\u5357
p838
sVKeyWord
p839
g39
sVRemarkName
p840
g39
sVPYInitial
p841
VEREBUS
p842
sVChatRoomId
p843
I0
sVIsOwner
p844
I0
sVHideInputBarFlag
p845
I0
sVEncryChatRoomId
p846
g39
sVAttrStatus
p847
I4427879
sVSnsFlag
p848
I49
sVMemberCount
p849
I0
sVOwnerUin
p850
I0
sVAlias
p851
Vskinwen
p852
sVSignature
p853
V\u4eba\u4e11\u5634\u8d31\u4e00\u6839\u7b4b
p854
sVContactFlag
p855
I1
sVNickName
p856
VErebus
p857
sVRemarkPYQuanPin
p858
g39
sVHeadImgUrl
p859
V/cgi-bin/mmwebwx-bin/webwxgeticon?seq=632630502&username=@f7d01f945d6962e6dccaf91dbe3488e2a2c11a08e40724fdb57758be13d093b7&skey=@crypt_19753c23_05fa7a994bb1092bdd72a1191a0443aa
p860
sVSex
p861
I1
sVStarFriend
p862
I0
sVStatues
p863
I0
sa(dp864
VUserName
p865
V@38e32d179b29f8da0ce3815bd98639c0
p866
sVCity
p867
V\u5357\u4eac
p868
sVDisplayName
p869
g39
sVUniFriend
p870
I0
sVMemberList
p871
(lp872
sVPYQuanPin
p873
VDeanWang
p874
sVRemarkPYInitial
p875
g39
sVUin
p876
I0
sVAppAccountFlag
p877
I0
sVVerifyFlag
p878
I0
sVProvince
p879
V\u6c5f\u82cf
p880
sVKeyWord
p881
VAku
p882
sVRemarkName
p883
g39
sVPYInitial
p884
VDEANWANG
p885
sVChatRoomId
p886
I0
sVIsOwner
p887
I0
sVHideInputBarFlag
p888
I0
sVEncryChatRoomId
p889
g39
sVAttrStatus
p890
I33722533
sVSnsFlag
p891
I17
sVMemberCount
p892
I0
sVOwnerUin
p893
I0
sVAlias
p894
Vi-need-you-510
p895
sVSignature
p896
VGet busy living, Or get busy dying.
p897
sVContactFlag
p898
I1
sVNickName
p899
VDean Wang
p900
sVRemarkPYQuanPin
p901
g39
sVHeadImgUrl
p902
V/cgi-bin/mmwebwx-bin/webwxgeticon?seq=636010548&username=@38e32d179b29f8da0ce3815bd98639c0&skey=@crypt_19753c23_05fa7a994bb1092bdd72a1191a0443aa
p903
sVSex
p904
I1
sVStarFriend
p905
I0
sVStatues
p906
I0
sa(dp907
VUserName
p908
V@f1c1c8ce524d69aa05f8426bdcca3503e9f85d292fe7daabc894da11cd9fe0bb
p909
sVCity
p910
g39
sVDisplayName
p911
g39
sVUniFriend
p912
I0
sVMemberList
p913
(lp914
sVPYQuanPin
p915
VBusyBee?
p916
sVRemarkPYInitial
p917
g39
sVUin
p918
I0
sVAppAccountFlag
p919
I0
sVVerifyFlag
p920
I0
sVProvince
p921
g39
sVKeyWord
p922
g39
sVRemarkName
p923
g39
sVPYInitial
p924
VBUSYBEE?
p925
sVChatRoomId
p926
I0
sVIsOwner
p927
I0
sVHideInputBarFlag
p928
I0
sVEncryChatRoomId
p929
g39
sVAttrStatus
p930
I102437
sVSnsFlag
p931
I0
sVMemberCount
p932
I0
sVOwnerUin
p933
I0
sVAlias
p934
Vbusybeeinthetree
p935
sVSignature
p936
g39
sVContactFlag
p937
I8193
sVNickName
p938
VBusy Bee\U0001f41d
p939
sVRemarkPYQuanPin
p940
g39
sVHeadImgUrl
p941
V/cgi-bin/mmwebwx-bin/webwxgeticon?seq=660994577&username=@f1c1c8ce524d69aa05f8426bdcca3503e9f85d292fe7daabc894da11cd9fe0bb&skey=@crypt_19753c23_05fa7a994bb1092bdd72a1191a0443aa
p942
sVSex
p943
I0
sVStarFriend
p944
I0
sVStatues
p945
I0
sa(dp946
VUserName
p947
V@c13791555749e146b08a95ec9808f6b3
p948
sVCity
p949
V\u957f\u6c99
p950
sVDisplayName
p951
g39
sVUniFriend
p952
I0
sVMemberList
p953
(lp954
sVPYQuanPin
p955
Vxianyun
p956
sVRemarkPYInitial
p957
VSJ
p958
sVUin
p959
I0
sVAppAccountFlag
p960
I0
sVVerifyFlag
p961
I0
sVProvince
p962
V\u6e56\u5357
p963
sVKeyWord
p964
Vxia
p965
sVRemarkName
p966
V\u6c88\u7adf
p967
sVPYInitial
p968
VXIANYUN
p969
sVChatRoomId
p970
I0
sVIsOwner
p971
I0
sVHideInputBarFlag
p972
I0
sVEncryChatRoomId
p973
g39
sVAttrStatus
p974
I112743
sVSnsFlag
p975
I17
sVMemberCount
p976
I0
sVOwnerUin
p977
I0
sVAlias
p978
g39
sVSignature
p979
g39
sVContactFlag
p980
I1
sVNickName
p981
Vxianyun
p982
sVRemarkPYQuanPin
p983
Vshenjing
p984
sVHeadImgUrl
p985
V/cgi-bin/mmwebwx-bin/webwxgeticon?seq=637726914&username=@c13791555749e146b08a95ec9808f6b3&skey=@crypt_19753c23_05fa7a994bb1092bdd72a1191a0443aa
p986
sVSex
p987
I1
sVStarFriend
p988
I0
sVStatues
p989
I0
sa(dp990
VUserName
p991
V@38a7dbe6aed2da5864242acc9ce73cfd
p992
sVCity
p993
V\u5357\u4eac
p994
sVDisplayName
p995
g39
sVUniFriend
p996
I0
sVMemberList
p997
(lp998
sVPYQuanPin
p999
VAlex
p1000
sVRemarkPYInitial
p1001
VXPY
p1002
sVUin
p1003
I0
sVAppAccountFlag
p1004
I0
sVVerifyFlag
p1005
I0
sVProvince
p1006
V\u6c5f\u82cf
p1007
sVKeyWord
p1008
Vxin
p1009
sVRemarkName
p1010
V\u90a2\u4f69\u6bc5
p1011
sVPYInitial
p1012
VALEX
p1013
sVChatRoomId
p1014
I0
sVIsOwner
p1015
I0
sVHideInputBarFlag
p1016
I0
sVEncryChatRoomId
p1017
g39
sVAttrStatus
p1018
I77923
sVSnsFlag
p1019
I49
sVMemberCount
p1020
I0
sVOwnerUin
p1021
I0
sVAlias
p1022
Vtattoo_giving
p1023
sVSignature
p1024
Vgo home\u3002
p1025
sVContactFlag
p1026
I1
sVNickName
p1027
VAlex
p1028
sVRemarkPYQuanPin
p1029
Vxingpeiyi
p1030
sVHeadImgUrl
p1031
V/cgi-bin/mmwebwx-bin/webwxgeticon?seq=660988876&username=@38a7dbe6aed2da5864242acc9ce73cfd&skey=@crypt_19753c23_05fa7a994bb1092bdd72a1191a0443aa
p1032
sVSex
p1033
I1
sVStarFriend
p1034
I0
sVStatues
p1035
I0
sa(dp1036
VUserName
p1037
V@a06931b7139056fe25bf04aa34c764048c18a80bf93b5f17d5c4def17f6f4f34
p1038
sVCity
p1039
V\u6b66\u6c49
p1040
sVDisplayName
p1041
g39
sVUniFriend
p1042
I0
sVMemberList
p1043
(lp1044
sVPYQuanPin
p1045
VHoltH
p1046
sVRemarkPYInitial
p1047
g39
sVUin
p1048
I0
sVAppAccountFlag
p1049
I0
sVVerifyFlag
p1050
I0
sVProvince
p1051
V\u6e56\u5317
p1052
sVKeyWord
p1053
g39
sVRemarkName
p1054
g39
sVPYInitial
p1055
VHOLTH
p1056
sVChatRoomId
p1057
I0
sVIsOwner
p1058
I0
sVHideInputBarFlag
p1059
I0
sVEncryChatRoomId
p1060
g39
sVAttrStatus
p1061
I33652773
sVSnsFlag
p1062
I17
sVMemberCount
p1063
I0
sVOwnerUin
p1064
I0
sVAlias
p1065
g39
sVSignature
p1066
g39
sVContactFlag
p1067
I1
sVNickName
p1068
VHolt_H
p1069
sVRemarkPYQuanPin
p1070
g39
sVHeadImgUrl
p1071
V/cgi-bin/mmwebwx-bin/webwxgeticon?seq=661000444&username=@a06931b7139056fe25bf04aa34c764048c18a80bf93b5f17d5c4def17f6f4f34&skey=@crypt_19753c23_05fa7a994bb1092bdd72a1191a0443aa
p1072
sVSex
p1073
I1
sVStarFriend
p1074
I0
sVStatues
p1075
I0
sa(dp1076
VUserName
p1077
V@6ae674c8135c245eae96d8e583941ddbf8550f12e87a32ebab2ecb7840cc4ae9
p1078
sVCity
p1079
V\u829c\u6e56
p1080
sVDisplayName
p1081
g39
sVUniFriend
p1082
I0
sVMemberList
p1083
(lp1084
sVPYQuanPin
p1085
Vsheng
p1086
sVRemarkPYInitial
p1087
g39
sVUin
p1088
I0
sVAppAccountFlag
p1089
I0
sVVerifyFlag
p1090
I0
sVProvince
p1091
V\u5b89\u5fbd
p1092
sVKeyWord
p1093
g39
sVRemarkName
p1094
g39
sVPYInitial
p1095
VS
p1096
sVChatRoomId
p1097
I0
sVIsOwner
p1098
I0
sVHideInputBarFlag
p1099
I0
sVEncryChatRoomId
p1100
g39
sVAttrStatus
p1101
I4135
sVSnsFlag
p1102
I17
sVMemberCount
p1103
I0
sVOwnerUin
p1104
I0
sVAlias
p1105
g39
sVSignature
p1106
V\u723d
p1107
sVContactFlag
p1108
I1
sVNickName
p1109
V\u5723
p1110
sVRemarkPYQuanPin
p1111
g39
sVHeadImgUrl
p1112
V/cgi-bin/mmwebwx-bin/webwxgeticon?seq=660999378&username=@6ae674c8135c245eae96d8e583941ddbf8550f12e87a32ebab2ecb7840cc4ae9&skey=@crypt_19753c23_05fa7a994bb1092bdd72a1191a0443aa
p1113
sVSex
p1114
I1
sVStarFriend
p1115
I0
sVStatues
p1116
I0
sa(dp1117
VUserName
p1118
V@c2743418f2bff6f6c907297bbb264c1cae874789b530db2b611d6cf27757a6ff
p1119
sVCity
p1120
g39
sVDisplayName
p1121
g39
sVUniFriend
p1122
I0
sVMemberList
p1123
(lp1124
sVPYQuanPin
p1125
Vwardking
p1126
sVRemarkPYInitial
p1127
g39
sVUin
p1128
I0
sVAppAccountFlag
p1129
I0
sVVerifyFlag
p1130
I0
sVProvince
p1131
g39
sVKeyWord
p1132
g39
sVRemarkName
p1133
g39
sVPYInitial
p1134
VWARDKING
p1135
sVChatRoomId
p1136
I0
sVIsOwner
p1137
I0
sVHideInputBarFlag
p1138
I0
sVEncryChatRoomId
p1139
g39
sVAttrStatus
p1140
I102503
sVSnsFlag
p1141
I1
sVMemberCount
p1142
I0
sVOwnerUin
p1143
I0
sVAlias
p1144
Vwardking628
p1145
sVSignature
p1146
VToo young too simple, sometimes naive.
p1147
sVContactFlag
p1148
I1
sVNickName
p1149
Vwardking
p1150
sVRemarkPYQuanPin
p1151
g39
sVHeadImgUrl
p1152
V/cgi-bin/mmwebwx-bin/webwxgeticon?seq=660999001&username=@c2743418f2bff6f6c907297bbb264c1cae874789b530db2b611d6cf27757a6ff&skey=@crypt_19753c23_05fa7a994bb1092bdd72a1191a0443aa
p1153
sVSex
p1154
I1
sVStarFriend
p1155
I0
sVStatues
p1156
I0
sa(dp1157
VUserName
p1158
V@82de07029faf94beb9fe59e2cd45cd8f
p1159
sVCity
p1160
V\u6d66\u4e1c\u65b0\u533a
p1161
sVDisplayName
p1162
g39
sVUniFriend
p1163
I0
sVMemberList
p1164
(lp1165
sVPYQuanPin
p1166
Vqingzaiqiutianjiaoxingwo
p1167
sVRemarkPYInitial
p1168
VMLML
p1169
sVUin
p1170
I0
sVAppAccountFlag
p1171
I0
sVVerifyFlag
p1172
I0
sVProvince
p1173
V\u4e0a\u6d77
p1174
sVKeyWord
p1175
Vml1
p1176
sVRemarkName
p1177
V\u7c73\u5170\u739b\u4e3d
p1178
sVPYInitial
p1179
VQZQTJXW
p1180
sVChatRoomId
p1181
I0
sVIsOwner
p1182
I0
sVHideInputBarFlag
p1183
I0
sVEncryChatRoomId
p1184
g39
sVAttrStatus
p1185
I80999
sVSnsFlag
p1186
I49
sVMemberCount
p1187
I0
sVOwnerUin
p1188
I0
sVAlias
p1189
g39
sVSignature
p1190
V\u4e00\u5207\u90fd\u4f1a\u597d\uff0c\u548c\u7167\u7247\u4e00\u6837\u597d\uff0c\u4e0d\u7528PS\uff0c\u4e5f\u662f\u6696\u8272\u8c03\u3002
p1191
sVContactFlag
p1192
I65793
sVNickName
p1193
V\u8bf7\u5728\u79cb\u5929\u53eb\u9192\u6211
p1194
sVRemarkPYQuanPin
p1195
Vmilanmali
p1196
sVHeadImgUrl
p1197
V/cgi-bin/mmwebwx-bin/webwxgeticon?seq=661016107&username=@82de07029faf94beb9fe59e2cd45cd8f&skey=@crypt_19753c23_05fa7a994bb1092bdd72a1191a0443aa
p1198
sVSex
p1199
I2
sVStarFriend
p1200
I0
sVStatues
p1201
I0
sa(dp1202
VUserName
p1203
V@8e37d01418da7f62e79d764d254f961631f7d68dd31a26f40a443d5525f6bc46
p1204
sVCity
p1205
V\u82cf\u5dde
p1206
sVDisplayName
p1207
g39
sVUniFriend
p1208
I0
sVMemberList
p1209
(lp1210
sVPYQuanPin
p1211
Vyoyoyu
p1212
sVRemarkPYInitial
p1213
g39
sVUin
p1214
I0
sVAppAccountFlag
p1215
I0
sVVerifyFlag
p1216
I0
sVProvince
p1217
V\u6c5f\u82cf
p1218
sVKeyWord
p1219
g39
sVRemarkName
p1220
g39
sVPYInitial
p1221
VYOYOYU
p1222
sVChatRoomId
p1223
I0
sVIsOwner
p1224
I0
sVHideInputBarFlag
p1225
I0
sVEncryChatRoomId
p1226
g39
sVAttrStatus
p1227
I16909757
sVSnsFlag
p1228
I17
sVMemberCount
p1229
I0
sVOwnerUin
p1230
I0
sVAlias
p1231
Vyuyouyour
p1232
sVSignature
p1233
V\u5f00\u5fc3\u5c31\u597d
p1234
sVContactFlag
p1235
I3
sVNickName
p1236
Vyoyoyu
p1237
sVRemarkPYQuanPin
p1238
g39
sVHeadImgUrl
p1239
V/cgi-bin/mmwebwx-bin/webwxgeticon?seq=661016457&username=@8e37d01418da7f62e79d764d254f961631f7d68dd31a26f40a443d5525f6bc46&skey=@crypt_19753c23_05fa7a994bb1092bdd72a1191a0443aa
p1240
sVSex
p1241
I2
sVStarFriend
p1242
I0
sVStatues
p1243
I0
sa(dp1244
VUserName
p1245
V@d8caac0db65b134ce30b4be692b0e45e
p1246
sVCity
p1247
V\u6df1\u5733
p1248
sVDisplayName
p1249
g39
sVUniFriend
p1250
I0
sVMemberList
p1251
(lp1252
sVPYQuanPin
p1253
Vlinkuan
p1254
sVRemarkPYInitial
p1255
g39
sVUin
p1256
I0
sVAppAccountFlag
p1257
I0
sVVerifyFlag
p1258
I0
sVProvince
p1259
V\u5e7f\u4e1c
p1260
sVKeyWord
p1261
Vlk_
p1262
sVRemarkName
p1263
g39
sVPYInitial
p1264
VLK
p1265
sVChatRoomId
p1266
I0
sVIsOwner
p1267
I0
sVHideInputBarFlag
p1268
I0
sVEncryChatRoomId
p1269
g39
sVAttrStatus
p1270
I4294759
sVSnsFlag
p1271
I49
sVMemberCount
p1272
I0
sVOwnerUin
p1273
I0
sVAlias
p1274
g39
sVSignature
p1275
g39
sVContactFlag
p1276
I1
sVNickName
p1277
V\u6797\u5bbd
p1278
sVRemarkPYQuanPin
p1279
g39
sVHeadImgUrl
p1280
V/cgi-bin/mmwebwx-bin/webwxgeticon?seq=630770795&username=@d8caac0db65b134ce30b4be692b0e45e&skey=@crypt_19753c23_05fa7a994bb1092bdd72a1191a0443aa
p1281
sVSex
p1282
I1
sVStarFriend
p1283
I0
sVStatues
p1284
I0
sa(dp1285
VUserName
p1286
V@0f3484b93457b7eb023a52428ca1343c
p1287
sVCity
p1288
V\u5357\u4eac
p1289
sVDisplayName
p1290
g39
sVUniFriend
p1291
I0
sVMemberList
p1292
(lp1293
sVPYQuanPin
p1294
Vyeduwuren
p1295
sVRemarkPYInitial
p1296
VZJ
p1297
sVUin
p1298
I0
sVAppAccountFlag
p1299
I0
sVVerifyFlag
p1300
I0
sVProvince
p1301
V\u6c5f\u82cf
p1302
sVKeyWord
p1303
Vzjs
p1304
sVRemarkName
p1305
V\u5de6\u952e
p1306
sVPYInitial
p1307
VYDWR
p1308
sVChatRoomId
p1309
I0
sVIsOwner
p1310
I0
sVHideInputBarFlag
p1311
I0
sVEncryChatRoomId
p1312
g39
sVAttrStatus
p1313
I20583
sVSnsFlag
p1314
I17
sVMemberCount
p1315
I0
sVOwnerUin
p1316
I0
sVAlias
p1317
g39
sVSignature
p1318
V\u751f\u6d3b\u65e0\u5904\u4e0d\u7cbe\u5f69^v^
p1319
sVContactFlag
p1320
I1
sVNickName
p1321
V\u91ce\u6e21\u65e0\u4eba
p1322
sVRemarkPYQuanPin
p1323
Vzuojian
p1324
sVHeadImgUrl
p1325
V/cgi-bin/mmwebwx-bin/webwxgeticon?seq=661016980&username=@0f3484b93457b7eb023a52428ca1343c&skey=@crypt_19753c23_05fa7a994bb1092bdd72a1191a0443aa
p1326
sVSex
p1327
I1
sVStarFriend
p1328
I0
sVStatues
p1329
I0
sa(dp1330
VUserName
p1331
V@a08a239891ae7def8cbf8ec799bafbf83f8b34af4bd2f7e65d2cd58181efeb46
p1332
sVCity
p1333
V\u829c\u6e56
p1334
sVDisplayName
p1335
g39
sVUniFriend
p1336
I0
sVMemberList
p1337
(lp1338
sVPYQuanPin
p1339
VCaco
p1340
sVRemarkPYInitial
p1341
g39
sVUin
p1342
I0
sVAppAccountFlag
p1343
I0
sVVerifyFlag
p1344
I0
sVProvince
p1345
V\u5b89\u5fbd
p1346
sVKeyWord
p1347
g39
sVRemarkName
p1348
g39
sVPYInitial
p1349
VCACO
p1350
sVChatRoomId
p1351
I0
sVIsOwner
p1352
I0
sVHideInputBarFlag
p1353
I0
sVEncryChatRoomId
p1354
g39
sVAttrStatus
p1355
I242021
sVSnsFlag
p1356
I49
sVMemberCount
p1357
I0
sVOwnerUin
p1358
I0
sVAlias
p1359
Vtc673317396
p1360
sVSignature
p1361
g39
sVContactFlag
p1362
I1
sVNickName
p1363
VCaco
p1364
sVRemarkPYQuanPin
p1365
g39
sVHeadImgUrl
p1366
V/cgi-bin/mmwebwx-bin/webwxgeticon?seq=660989276&username=@a08a239891ae7def8cbf8ec799bafbf83f8b34af4bd2f7e65d2cd58181efeb46&skey=@crypt_19753c23_05fa7a994bb1092bdd72a1191a0443aa
p1367
sVSex
p1368
I1
sVStarFriend
p1369
I0
sVStatues
p1370
I0
sa(dp1371
VUserName
p1372
V@e2c3498b867aff49248c6ea5f10f0fcb
p1373
sVCity
p1374
V\u95f5\u884c
p1375
sVDisplayName
p1376
g39
sVUniFriend
p1377
I0
sVMemberList
p1378
(lp1379
sVPYQuanPin
p1380
Vchaoqiang
p1381
sVRemarkPYInitial
p1382
g39
sVUin
p1383
I0
sVAppAccountFlag
p1384
I0
sVVerifyFlag
p1385
I0
sVProvince
p1386
V\u4e0a\u6d77
p1387
sVKeyWord
p1388
VWHX
p1389
sVRemarkName
p1390
g39
sVPYInitial
p1391
VCQ
p1392
sVChatRoomId
p1393
I0
sVIsOwner
p1394
I0
sVHideInputBarFlag
p1395
I0
sVEncryChatRoomId
p1396
g39
sVAttrStatus
p1397
I234279
sVSnsFlag
p1398
I49
sVMemberCount
p1399
I0
sVOwnerUin
p1400
I0
sVAlias
p1401
g39
sVSignature
p1402
g39
sVContactFlag
p1403
I1
sVNickName
p1404
V\u8d85\u5f3a
p1405
sVRemarkPYQuanPin
p1406
g39
sVHeadImgUrl
p1407
V/cgi-bin/mmwebwx-bin/webwxgeticon?seq=660993170&username=@e2c3498b867aff49248c6ea5f10f0fcb&skey=@crypt_19753c23_05fa7a994bb1092bdd72a1191a0443aa
p1408
sVSex
p1409
I1
sVStarFriend
p1410
I0
sVStatues
p1411
I0
sa(dp1412
VUserName
p1413
V@7445cacbf1d8288b270e7c1b85987af5
p1414
sVCity
p1415
V\u4e1c\u839e
p1416
sVDisplayName
p1417
g39
sVUniFriend
p1418
I0
sVMemberList
p1419
(lp1420
sVPYQuanPin
p1421
Vqinyeming
p1422
sVRemarkPYInitial
p1423
g39
sVUin
p1424
I0
sVAppAccountFlag
p1425
I0
sVVerifyFlag
p1426
I0
sVProvince
p1427
V\u5e7f\u4e1c
p1428
sVKeyWord
p1429
Vqin
p1430
sVRemarkName
p1431
g39
sVPYInitial
p1432
VQYM
p1433
sVChatRoomId
p1434
I0
sVIsOwner
p1435
I0
sVHideInputBarFlag
p1436
I0
sVEncryChatRoomId
p1437
g39
sVAttrStatus
p1438
I135271
sVSnsFlag
p1439
I17
sVMemberCount
p1440
I0
sVOwnerUin
p1441
I0
sVAlias
p1442
g39
sVSignature
p1443
g39
sVContactFlag
p1444
I1
sVNickName
p1445
V\u8983\u4e1a\u660e
p1446
sVRemarkPYQuanPin
p1447
g39
sVHeadImgUrl
p1448
V/cgi-bin/mmwebwx-bin/webwxgeticon?seq=661019236&username=@7445cacbf1d8288b270e7c1b85987af5&skey=@crypt_19753c23_05fa7a994bb1092bdd72a1191a0443aa
p1449
sVSex
p1450
I1
sVStarFriend
p1451
I0
sVStatues
p1452
I0
sa(dp1453
VUserName
p1454
V@54509e1bf158e0e0af92920f0945d936
p1455
sVCity
p1456
V\u82cf\u5dde
p1457
sVDisplayName
p1458
g39
sVUniFriend
p1459
I0
sVMemberList
p1460
(lp1461
sVPYQuanPin
p1462
Vbo
p1463
sVRemarkPYInitial
p1464
VWYL
p1465
sVUin
p1466
I0
sVAppAccountFlag
p1467
I0
sVVerifyFlag
p1468
I0
sVProvince
p1469
V\u6c5f\u82cf
p1470
sVKeyWord
p1471
Vwei
p1472
sVRemarkName
p1473
V\u9b4f\u4e49\u9f99
p1474
sVPYInitial
p1475
VB
p1476
sVChatRoomId
p1477
I0
sVIsOwner
p1478
I0
sVHideInputBarFlag
p1479
I0
sVEncryChatRoomId
p1480
g39
sVAttrStatus
p1481
I102501
sVSnsFlag
p1482
I17
sVMemberCount
p1483
I0
sVOwnerUin
p1484
I0
sVAlias
p1485
g39
sVSignature
p1486
g39
sVContactFlag
p1487
I1
sVNickName
p1488
V\u535a
p1489
sVRemarkPYQuanPin
p1490
Vweiyilong
p1491
sVHeadImgUrl
p1492
V/cgi-bin/mmwebwx-bin/webwxgeticon?seq=661022907&username=@54509e1bf158e0e0af92920f0945d936&skey=@crypt_19753c23_05fa7a994bb1092bdd72a1191a0443aa
p1493
sVSex
p1494
I1
sVStarFriend
p1495
I0
sVStatues
p1496
I0
sa(dp1497
VUserName
p1498
V@09b3b019a4a041658283faece2224ae1528f5207a049fabdcd0211d110be410f
p1499
sVCity
p1500
V\u82cf\u5dde
p1501
sVDisplayName
p1502
g39
sVUniFriend
p1503
I0
sVMemberList
p1504
(lp1505
sVPYQuanPin
p1506
VZain
p1507
sVRemarkPYInitial
p1508
VZY
p1509
sVUin
p1510
I0
sVAppAccountFlag
p1511
I0
sVVerifyFlag
p1512
I0
sVProvince
p1513
V\u6c5f\u82cf
p1514
sVKeyWord
p1515
g39
sVRemarkName
p1516
V\u5f20\u8d8a
p1517
sVPYInitial
p1518
VZAIN
p1519
sVChatRoomId
p1520
I0
sVIsOwner
p1521
I0
sVHideInputBarFlag
p1522
I0
sVEncryChatRoomId
p1523
g39
sVAttrStatus
p1524
I78947
sVSnsFlag
p1525
I17
sVMemberCount
p1526
I0
sVOwnerUin
p1527
I0
sVAlias
p1528
Vzy4322683226312
p1529
sVSignature
p1530
g39
sVContactFlag
p1531
I1
sVNickName
p1532
VZain
p1533
sVRemarkPYQuanPin
p1534
Vzhangyue
p1535
sVHeadImgUrl
p1536
V/cgi-bin/mmwebwx-bin/webwxgeticon?seq=660987601&username=@09b3b019a4a041658283faece2224ae1528f5207a049fabdcd0211d110be410f&skey=@crypt_19753c23_05fa7a994bb1092bdd72a1191a0443aa
p1537
sVSex
p1538
I1
sVStarFriend
p1539
I0
sVStatues
p1540
I0
sa(dp1541
VUserName
p1542
V@d4180f0f375c1c2bc2227d4408f5d197
p1543
sVCity
p1544
V\u94dc\u9675
p1545
sVDisplayName
p1546
g39
sVUniFriend
p1547
I0
sVMemberList
p1548
(lp1549
sVPYQuanPin
p1550
Vsatuo
p1551
sVRemarkPYInitial
p1552
g39
sVUin
p1553
I0
sVAppAccountFlag
p1554
I0
sVVerifyFlag
p1555
I0
sVProvince
p1556
V\u5b89\u5fbd
p1557
sVKeyWord
p1558
VBBA
p1559
sVRemarkName
p1560
g39
sVPYInitial
p1561
VST
p1562
sVChatRoomId
p1563
I0
sVIsOwner
p1564
I0
sVHideInputBarFlag
p1565
I0
sVEncryChatRoomId
p1566
g39
sVAttrStatus
p1567
I101413
sVSnsFlag
p1568
I49
sVMemberCount
p1569
I0
sVOwnerUin
p1570
I0
sVAlias
p1571
g39
sVSignature
p1572
V\u8fd9\u662f\u5f88\u957f\uff0c\u5f88\u597d\u7684\u4e00\u751f\u3002
p1573
sVContactFlag
p1574
I1
sVNickName
p1575
V\u6d12\u8131\uff0e\uffe0
p1576
sVRemarkPYQuanPin
p1577
g39
sVHeadImgUrl
p1578
V/cgi-bin/mmwebwx-bin/webwxgeticon?seq=677361045&username=@d4180f0f375c1c2bc2227d4408f5d197&skey=@crypt_19753c23_05fa7a994bb1092bdd72a1191a0443aa
p1579
sVSex
p1580
I2
sVStarFriend
p1581
I0
sVStatues
p1582
I0
sa(dp1583
VUserName
p1584
V@f6fea6b4601096582ee6a35e95a2e1fdfa14ee43d1e6f5ca385c4c3b059fe684
p1585
sVCity
p1586
V\u5b81\u6ce2
p1587
sVDisplayName
p1588
g39
sVUniFriend
p1589
I0
sVMemberList
p1590
(lp1591
sVPYQuanPin
p1592
Vpp
p1593
sVRemarkPYInitial
p1594
g39
sVUin
p1595
I0
sVAppAccountFlag
p1596
I0
sVVerifyFlag
p1597
I0
sVProvince
p1598
V\u6d59\u6c5f
p1599
sVKeyWord
p1600
g39
sVRemarkName
p1601
g39
sVPYInitial
p1602
VPP
p1603
sVChatRoomId
p1604
I0
sVIsOwner
p1605
I0
sVHideInputBarFlag
p1606
I0
sVEncryChatRoomId
p1607
g39
sVAttrStatus
p1608
I233509
sVSnsFlag
p1609
I49
sVMemberCount
p1610
I0
sVOwnerUin
p1611
I0
sVAlias
p1612
Vgst99xiaosayisheng
p1613
sVSignature
p1614
V\u5e0c\u671b8\u6708\u4efd\u89c1\u5230\u5065\u5eb7\u5e73\u5b89\u7684\u7518\u591a\u94b1
p1615
sVContactFlag
p1616
I1
sVNickName
p1617
Vpp
p1618
sVRemarkPYQuanPin
p1619
g39
sVHeadImgUrl
p1620
V/cgi-bin/mmwebwx-bin/webwxgeticon?seq=660986003&username=@f6fea6b4601096582ee6a35e95a2e1fdfa14ee43d1e6f5ca385c4c3b059fe684&skey=@crypt_19753c23_05fa7a994bb1092bdd72a1191a0443aa
p1621
sVSex
p1622
I1
sVStarFriend
p1623
I0
sVStatues
p1624
I0
sa(dp1625
VUserName
p1626
V@bd0ba166185a8760a5f7ff63ff8fe538
p1627
sVCity
p1628
V\u5927\u8fde
p1629
sVDisplayName
p1630
g39
sVUniFriend
p1631
I0
sVMemberList
p1632
(lp1633
sVPYQuanPin
p1634
Vchen
p1635
sVRemarkPYInitial
p1636
g39
sVUin
p1637
I0
sVAppAccountFlag
p1638
I0
sVVerifyFlag
p1639
I0
sVProvince
p1640
V\u8fbd\u5b81
p1641
sVKeyWord
p1642
Vsol
p1643
sVRemarkName
p1644
g39
sVPYInitial
p1645
VC
p1646
sVChatRoomId
p1647
I0
sVIsOwner
p1648
I0
sVHideInputBarFlag
p1649
I0
sVEncryChatRoomId
p1650
g39
sVAttrStatus
p1651
I33653951
sVSnsFlag
p1652
I49
sVMemberCount
p1653
I0
sVOwnerUin
p1654
I0
sVAlias
p1655
g39
sVSignature
p1656
Vdare\uff5e
p1657
sVContactFlag
p1658
I1
sVNickName
p1659
V\u6668
p1660
sVRemarkPYQuanPin
p1661
g39
sVHeadImgUrl
p1662
V/cgi-bin/mmwebwx-bin/webwxgeticon?seq=661012299&username=@bd0ba166185a8760a5f7ff63ff8fe538&skey=@crypt_19753c23_05fa7a994bb1092bdd72a1191a0443aa
p1663
sVSex
p1664
I1
sVStarFriend
p1665
I0
sVStatues
p1666
I0
sa(dp1667
VUserName
p1668
V@33ebfe5815062abea5cd74a8ada2a471
p1669
sVCity
p1670
g39
sVDisplayName
p1671
g39
sVUniFriend
p1672
I0
sVMemberList
p1673
(lp1674
sVPYQuanPin
p1675
Vya
p1676
sVRemarkPYInitial
p1677
g39
sVUin
p1678
I0
sVAppAccountFlag
p1679
I0
sVVerifyFlag
p1680
I0
sVProvince
p1681
VAnkara
p1682
sVKeyWord
p1683
Vyy2
p1684
sVRemarkName
p1685
g39
sVPYInitial
p1686
VYA
p1687
sVChatRoomId
p1688
I0
sVIsOwner
p1689
I0
sVHideInputBarFlag
p1690
I0
sVEncryChatRoomId
p1691
g39
sVAttrStatus
p1692
I232295
sVSnsFlag
p1693
I49
sVMemberCount
p1694
I0
sVOwnerUin
p1695
I0
sVAlias
p1696
g39
sVSignature
p1697
V\u6df9\u7559\u5c81\u6708\uff0c\u6599\u7406\u5c18\u57c3\u3002\u963f\u5179\u6d77\u9ed8\u65e9\u671f\uff0c\u91cd\u5ea6\u8138\u76f2\u2026
p1698
sVContactFlag
p1699
I1
sVNickName
p1700
Vya
p1701
sVRemarkPYQuanPin
p1702
g39
sVHeadImgUrl
p1703
V/cgi-bin/mmwebwx-bin/webwxgeticon?seq=660981358&username=@33ebfe5815062abea5cd74a8ada2a471&skey=@crypt_19753c23_05fa7a994bb1092bdd72a1191a0443aa
p1704
sVSex
p1705
I2
sVStarFriend
p1706
I0
sVStatues
p1707
I0
sa(dp1708
VUserName
p1709
V@5c983cd1c77461591791888c022fe70b35bd1c4bae3b0db0c901f79a8aa9a6bc
p1710
sVCity
p1711
V\u829c\u6e56
p1712
sVDisplayName
p1713
g39
sVUniFriend
p1714
I0
sVMemberList
p1715
(lp1716
sVPYQuanPin
p1717
VAspanclassemojiemoji1f42fspancaoxiaoxuspanclassemojiemoji1f430spanRubyhunshangFamily
p1718
sVRemarkPYInitial
p1719
VCLHS
p1720
sVUin
p1721
I0
sVAppAccountFlag
p1722
I0
sVVerifyFlag
p1723
I0
sVProvince
p1724
V\u5b89\u5fbd
p1725
sVKeyWord
p1726
g39
sVRemarkName
p1727
V\u66f9\u5170\uff5e\u5a5a\u5c1a
p1728
sVPYInitial
p1729
VASPANCLASSEMOJIEMOJI1F42FSPANCXXSPANCLASSEMOJIEMOJI1F430SPANRUBYHSFAMILY
p1730
sVChatRoomId
p1731
I0
sVIsOwner
p1732
I0
sVHideInputBarFlag
p1733
I0
sVEncryChatRoomId
p1734
g39
sVAttrStatus
p1735
I100391
sVSnsFlag
p1736
I49
sVMemberCount
p1737
I0
sVOwnerUin
p1738
I0
sVAlias
p1739
Vcaohuilan1004
p1740
sVSignature
p1741
V13675532015\uff08\u5982\u679c\u4f60\u60f3\u8981\u4e00\u5ea7\u57ce\u5821\uff0c\u6211\u4eec\u4e5f\u4f1a\u4e3a\u4f60\u5b9e\u73b0\uff09
p1742
sVContactFlag
p1743
I65793
sVNickName
p1744
VA-\U0001f42f\u66f9\u5c0f\u7d6e\U0001f430Ruby\u5a5a\u5c1aFamily
p1745
sVRemarkPYQuanPin
p1746
Vcaolanhunshang
p1747
sVHeadImgUrl
p1748
V/cgi-bin/mmwebwx-bin/webwxgeticon?seq=661021563&username=@5c983cd1c77461591791888c022fe70b35bd1c4bae3b0db0c901f79a8aa9a6bc&skey=@crypt_19753c23_05fa7a994bb1092bdd72a1191a0443aa
p1749
sVSex
p1750
I2
sVStarFriend
p1751
I0
sVStatues
p1752
I0
sa(dp1753
VUserName
p1754
V@2d5ff3e62158a066111d4c493c41b32b
p1755
sVCity
p1756
V\u829c\u6e56
p1757
sVDisplayName
p1758
g39
sVUniFriend
p1759
I0
sVMemberList
p1760
(lp1761
sVPYQuanPin
p1762
Vweixinsuoshi
p1763
sVRemarkPYInitial
p1764
g39
sVUin
p1765
I0
sVAppAccountFlag
p1766
I0
sVVerifyFlag
p1767
I0
sVProvince
p1768
V\u5b89\u5fbd
p1769
sVKeyWord
p1770
Vcon
p1771
sVRemarkName
p1772
g39
sVPYInitial
p1773
VWXSS
p1774
sVChatRoomId
p1775
I0
sVIsOwner
p1776
I0
sVHideInputBarFlag
p1777
I0
sVEncryChatRoomId
p1778
g39
sVAttrStatus
p1779
I33558631
sVSnsFlag
p1780
I17
sVMemberCount
p1781
I0
sVOwnerUin
p1782
I0
sVAlias
p1783
g39
sVSignature
p1784
V\u683c\u7269\u81f4\u77e5
p1785
sVContactFlag
p1786
I1
sVNickName
p1787
V\u552f\u5fc3\u6240\u8bc6
p1788
sVRemarkPYQuanPin
p1789
g39
sVHeadImgUrl
p1790
V/cgi-bin/mmwebwx-bin/webwxgeticon?seq=660983683&username=@2d5ff3e62158a066111d4c493c41b32b&skey=@crypt_19753c23_05fa7a994bb1092bdd72a1191a0443aa
p1791
sVSex
p1792
I1
sVStarFriend
p1793
I0
sVStatues
p1794
I0
sa(dp1795
VUserName
p1796
V@cd09d730ba091ca27ecfea8fda1f314b
p1797
sVCity
p1798
V\u5357\u4eac
p1799
sVDisplayName
p1800
g39
sVUniFriend
p1801
I0
sVMemberList
p1802
(lp1803
sVPYQuanPin
p1804
g39
sVRemarkPYInitial
p1805
g39
sVUin
p1806
I0
sVAppAccountFlag
p1807
I0
sVVerifyFlag
p1808
I0
sVProvince
p1809
V\u6c5f\u82cf
p1810
sVKeyWord
p1811
Vshi
p1812
sVRemarkName
p1813
g39
sVPYInitial
p1814
g39
sVChatRoomId
p1815
I0
sVIsOwner
p1816
I0
sVHideInputBarFlag
p1817
I0
sVEncryChatRoomId
p1818
g39
sVAttrStatus
p1819
I33690239
sVSnsFlag
p1820
I17
sVMemberCount
p1821
I0
sVOwnerUin
p1822
I0
sVAlias
p1823
Vifbewx
p1824
sVSignature
p1825
V\u55f7
p1826
sVContactFlag
p1827
I1
sVNickName
p1828
V*
p1829
sVRemarkPYQuanPin
p1830
g39
sVHeadImgUrl
p1831
V/cgi-bin/mmwebwx-bin/webwxgeticon?seq=661015906&username=@cd09d730ba091ca27ecfea8fda1f314b&skey=@crypt_19753c23_05fa7a994bb1092bdd72a1191a0443aa
p1832
sVSex
p1833
I1
sVStarFriend
p1834
I0
sVStatues
p1835
I0
sa(dp1836
VUserName
p1837
V@44fc8c8aaf6629bb86a77dedca20432a
p1838
sVCity
p1839
V\u82cf\u5dde
p1840
sVDisplayName
p1841
g39
sVUniFriend
p1842
I0
sVMemberList
p1843
(lp1844
sVPYQuanPin
p1845
VDC
p1846
sVRemarkPYInitial
p1847
g39
sVUin
p1848
I0
sVAppAccountFlag
p1849
I0
sVVerifyFlag
p1850
I0
sVProvince
p1851
V\u6c5f\u82cf
p1852
sVKeyWord
p1853
Vdc4
p1854
sVRemarkName
p1855
g39
sVPYInitial
p1856
VDC
p1857
sVChatRoomId
p1858
I0
sVIsOwner
p1859
I0
sVHideInputBarFlag
p1860
I0
sVEncryChatRoomId
p1861
g39
sVAttrStatus
p1862
I17013311
sVSnsFlag
p1863
I49
sVMemberCount
p1864
I0
sVOwnerUin
p1865
I0
sVAlias
p1866
Vnankingdc
p1867
sVSignature
p1868
V\u5df1\u6240\u4e0d\u6b32\uff0c\u52ff\u65bd\u4e8e\u4eba\u3002
p1869
sVContactFlag
p1870
I1
sVNickName
p1871
VDC
p1872
sVRemarkPYQuanPin
p1873
g39
sVHeadImgUrl
p1874
V/cgi-bin/mmwebwx-bin/webwxgeticon?seq=677367710&username=@44fc8c8aaf6629bb86a77dedca20432a&skey=@crypt_19753c23_05fa7a994bb1092bdd72a1191a0443aa
p1875
sVSex
p1876
I1
sVStarFriend
p1877
I0
sVStatues
p1878
I0
sa(dp1879
VUserName
p1880
V@2b1911fa3f1a656de5044547786784fd
p1881
sVCity
p1882
g39
sVDisplayName
p1883
g39
sVUniFriend
p1884
I0
sVMemberList
p1885
(lp1886
sVPYQuanPin
p1887
Vningmo
p1888
sVRemarkPYInitial
p1889
g39
sVUin
p1890
I0
sVAppAccountFlag
p1891
I0
sVVerifyFlag
p1892
I0
sVProvince
p1893
g39
sVKeyWord
p1894
Vliu
p1895
sVRemarkName
p1896
g39
sVPYInitial
p1897
VNM
p1898
sVChatRoomId
p1899
I0
sVIsOwner
p1900
I0
sVHideInputBarFlag
p1901
I0
sVEncryChatRoomId
p1902
g39
sVAttrStatus
p1903
I98495
sVSnsFlag
p1904
I49
sVMemberCount
p1905
I0
sVOwnerUin
p1906
I0
sVAlias
p1907
g39
sVSignature
p1908
g39
sVContactFlag
p1909
I3
sVNickName
p1910
V\u51dd\u58a8
p1911
sVRemarkPYQuanPin
p1912
g39
sVHeadImgUrl
p1913
V/cgi-bin/mmwebwx-bin/webwxgeticon?seq=661013704&username=@2b1911fa3f1a656de5044547786784fd&skey=@crypt_19753c23_05fa7a994bb1092bdd72a1191a0443aa
p1914
sVSex
p1915
I1
sVStarFriend
p1916
I0
sVStatues
p1917
I0
sa(dp1918
VUserName
p1919
V@405e5ecd87643c5fa614266f1b162726
p1920
sVCity
p1921
V\u829c\u6e56
p1922
sVDisplayName
p1923
g39
sVUniFriend
p1924
I0
sVMemberList
p1925
(lp1926
sVPYQuanPin
p1927
Vlianran
p1928
sVRemarkPYInitial
p1929
g39
sVUin
p1930
I0
sVAppAccountFlag
p1931
I0
sVVerifyFlag
p1932
I0
sVProvince
p1933
V\u5b89\u5fbd
p1934
sVKeyWord
p1935
Vqq4
p1936
sVRemarkName
p1937
g39
sVPYInitial
p1938
VLAR
p1939
sVChatRoomId
p1940
I0
sVIsOwner
p1941
I0
sVHideInputBarFlag
p1942
I0
sVEncryChatRoomId
p1943
g39
sVAttrStatus
p1944
I100605
sVSnsFlag
p1945
I49
sVMemberCount
p1946
I0
sVOwnerUin
p1947
I0
sVAlias
p1948
Vlianran920521
p1949
sVSignature
p1950
g39
sVContactFlag
p1951
I1
sVNickName
p1952
V\u9ece\u5b89\u7136
p1953
sVRemarkPYQuanPin
p1954
g39
sVHeadImgUrl
p1955
V/cgi-bin/mmwebwx-bin/webwxgeticon?seq=677368233&username=@405e5ecd87643c5fa614266f1b162726&skey=@crypt_19753c23_05fa7a994bb1092bdd72a1191a0443aa
p1956
sVSex
p1957
I2
sVStarFriend
p1958
I0
sVStatues
p1959
I0
sa(dp1960
VUserName
p1961
V@696bd43a765fdfc185b886afc8931f2b
p1962
sVCity
p1963
V\u5f90\u5dde
p1964
sVDisplayName
p1965
g39
sVUniFriend
p1966
I0
sVMemberList
p1967
(lp1968
sVPYQuanPin
p1969
Vyangguangxiaozhu
p1970
sVRemarkPYInitial
p1971
g39
sVUin
p1972
I0
sVAppAccountFlag
p1973
I0
sVVerifyFlag
p1974
I0
sVProvince
p1975
V\u6c5f\u82cf
p1976
sVKeyWord
p1977
Vday
p1978
sVRemarkName
p1979
g39
sVPYInitial
p1980
VYGXZ
p1981
sVChatRoomId
p1982
I0
sVIsOwner
p1983
I0
sVHideInputBarFlag
p1984
I0
sVEncryChatRoomId
p1985
g39
sVAttrStatus
p1986
I16879863
sVSnsFlag
p1987
I17
sVMemberCount
p1988
I0
sVOwnerUin
p1989
I0
sVAlias
p1990
g39
sVSignature
p1991
V\u52ff\u5fd8\u521d\u5fc3\uff0c\u4fdd\u6301\u672c\u6027
p1992
sVContactFlag
p1993
I1
sVNickName
p1994
V\u9633\u5149\u5c0f\u7b51
p1995
sVRemarkPYQuanPin
p1996
g39
sVHeadImgUrl
p1997
V/cgi-bin/mmwebwx-bin/webwxgeticon?seq=637730448&username=@696bd43a765fdfc185b886afc8931f2b&skey=@crypt_19753c23_05fa7a994bb1092bdd72a1191a0443aa
p1998
sVSex
p1999
I1
sVStarFriend
p2000
I0
sVStatues
p2001
I0
sa(dp2002
VUserName
p2003
V@0fb33a301aa3254f5490727060984d55e22c29a14bf6be960ecb43236965670a
p2004
sVCity
p2005
V\u6d77\u6dc0
p2006
sVDisplayName
p2007
g39
sVUniFriend
p2008
I0
sVMemberList
p2009
(lp2010
sVPYQuanPin
p2011
Vpengjie
p2012
sVRemarkPYInitial
p2013
g39
sVUin
p2014
I0
sVAppAccountFlag
p2015
I0
sVVerifyFlag
p2016
I0
sVProvince
p2017
V\u5317\u4eac
p2018
sVKeyWord
p2019
g39
sVRemarkName
p2020
g39
sVPYInitial
p2021
VPJ
p2022
sVChatRoomId
p2023
I0
sVIsOwner
p2024
I0
sVHideInputBarFlag
p2025
I0
sVEncryChatRoomId
p2026
g39
sVAttrStatus
p2027
I103547
sVSnsFlag
p2028
I17
sVMemberCount
p2029
I0
sVOwnerUin
p2030
I0
sVAlias
p2031
Vpengjie8825
p2032
sVSignature
p2033
Vinstinct\u2026
p2034
sVContactFlag
p2035
I1
sVNickName
p2036
V\u5f6d\u6770
p2037
sVRemarkPYQuanPin
p2038
g39
sVHeadImgUrl
p2039
V/cgi-bin/mmwebwx-bin/webwxgeticon?seq=677368613&username=@0fb33a301aa3254f5490727060984d55e22c29a14bf6be960ecb43236965670a&skey=@crypt_19753c23_05fa7a994bb1092bdd72a1191a0443aa
p2040
sVSex
p2041
I1
sVStarFriend
p2042
I0
sVStatues
p2043
I0
sa(dp2044
VUserName
p2045
V@41d470cf9d61b1140c812543b3b24b0a
p2046
sVCity
p2047
V\u829c\u6e56
p2048
sVDisplayName
p2049
g39
sVUniFriend
p2050
I0
sVMemberList
p2051
(lp2052
sVPYQuanPin
p2053
Vshenglei
p2054
sVRemarkPYInitial
p2055
g39
sVUin
p2056
I0
sVAppAccountFlag
p2057
I0
sVVerifyFlag
p2058
I0
sVProvince
p2059
V\u5b89\u5fbd
p2060
sVKeyWord
p2061
Vshe
p2062
sVRemarkName
p2063
g39
sVPYInitial
p2064
VSL
p2065
sVChatRoomId
p2066
I0
sVIsOwner
p2067
I0
sVHideInputBarFlag
p2068
I0
sVEncryChatRoomId
p2069
g39
sVAttrStatus
p2070
I102503
sVSnsFlag
p2071
I49
sVMemberCount
p2072
I0
sVOwnerUin
p2073
I0
sVAlias
p2074
g39
sVSignature
p2075
V\u5927\u5fc3\u810f<span class="emoji emoji2764"></span>\ufe0f
p2076
sVContactFlag
p2077
I3
sVNickName
p2078
V\u5723\u78ca
p2079
sVRemarkPYQuanPin
p2080
g39
sVHeadImgUrl
p2081
V/cgi-bin/mmwebwx-bin/webwxgeticon?seq=677368884&username=@41d470cf9d61b1140c812543b3b24b0a&skey=@crypt_19753c23_05fa7a994bb1092bdd72a1191a0443aa
p2082
sVSex
p2083
I1
sVStarFriend
p2084
I0
sVStatues
p2085
I0
sa(dp2086
VUserName
p2087
V@256f2efc9d7293fb9688e2260d7e4b32
p2088
sVCity
p2089
V\u82cf\u5dde
p2090
sVDisplayName
p2091
g39
sVUniFriend
p2092
I0
sVMemberList
p2093
(lp2094
sVPYQuanPin
p2095
Vrenye
p2096
sVRemarkPYInitial
p2097
g39
sVUin
p2098
I0
sVAppAccountFlag
p2099
I0
sVVerifyFlag
p2100
I0
sVProvince
p2101
V\u6c5f\u82cf
p2102
sVKeyWord
p2103
Vque
p2104
sVRemarkName
p2105
g39
sVPYInitial
p2106
VRY
p2107
sVChatRoomId
p2108
I0
sVIsOwner
p2109
I0
sVHideInputBarFlag
p2110
I0
sVEncryChatRoomId
p2111
g39
sVAttrStatus
p2112
I98343
sVSnsFlag
p2113
I49
sVMemberCount
p2114
I0
sVOwnerUin
p2115
I0
sVAlias
p2116
Vnelson_yang
p2117
sVSignature
p2118
V\u4ec5\u9650\u5065\u8eab\u8bb0\u5f55
p2119
sVContactFlag
p2120
I1
sVNickName
p2121
V\u4ec1\u7237
p2122
sVRemarkPYQuanPin
p2123
g39
sVHeadImgUrl
p2124
V/cgi-bin/mmwebwx-bin/webwxgeticon?seq=661017045&username=@256f2efc9d7293fb9688e2260d7e4b32&skey=@crypt_19753c23_05fa7a994bb1092bdd72a1191a0443aa
p2125
sVSex
p2126
I1
sVStarFriend
p2127
I0
sVStatues
p2128
I0
sa(dp2129
VUserName
p2130
V@625343c5052f1f46fa86fec8555651f9
p2131
sVCity
p2132
V\u829c\u6e56
p2133
sVDisplayName
p2134
g39
sVUniFriend
p2135
I0
sVMemberList
p2136
(lp2137
sVPYQuanPin
p2138
Vlanxiaohua
p2139
sVRemarkPYInitial
p2140
g39
sVUin
p2141
I0
sVAppAccountFlag
p2142
I0
sVVerifyFlag
p2143
I0
sVProvince
p2144
V\u5b89\u5fbd
p2145
sVKeyWord
p2146
Vzuo
p2147
sVRemarkName
p2148
g39
sVPYInitial
p2149
VLXH
p2150
sVChatRoomId
p2151
I0
sVIsOwner
p2152
I0
sVHideInputBarFlag
p2153
I0
sVEncryChatRoomId
p2154
g39
sVAttrStatus
p2155
I232443
sVSnsFlag
p2156
I49
sVMemberCount
p2157
I0
sVOwnerUin
p2158
I0
sVAlias
p2159
g39
sVSignature
p2160
V\u4f46\u884c\u597d\u4e8b\uff0c\u83ab\u95ee\u524d\u7a0b
p2161
sVContactFlag
p2162
I1
sVNickName
p2163
V\u61d2\u5c0f\u82b1
p2164
sVRemarkPYQuanPin
p2165
g39
sVHeadImgUrl
p2166
V/cgi-bin/mmwebwx-bin/webwxgeticon?seq=677363132&username=@625343c5052f1f46fa86fec8555651f9&skey=@crypt_19753c23_05fa7a994bb1092bdd72a1191a0443aa
p2167
sVSex
p2168
I2
sVStarFriend
p2169
I0
sVStatues
p2170
I0
sa(dp2171
VUserName
p2172
V@3010d1e62e35806c7c9d01a846437f2f5951bf5f5f697fd7468d6ef254989b09
p2173
sVCity
p2174
V\u6df1\u5733
p2175
sVDisplayName
p2176
g39
sVUniFriend
p2177
I0
sVMemberList
p2178
(lp2179
sVPYQuanPin
p2180
Vfeiyibandeqiang
p2181
sVRemarkPYInitial
p2182
g39
sVUin
p2183
I0
sVAppAccountFlag
p2184
I0
sVVerifyFlag
p2185
I0
sVProvince
p2186
V\u5e7f\u4e1c
p2187
sVKeyWord
p2188
g39
sVRemarkName
p2189
g39
sVPYInitial
p2190
VFYBDQ
p2191
sVChatRoomId
p2192
I0
sVIsOwner
p2193
I0
sVHideInputBarFlag
p2194
I0
sVEncryChatRoomId
p2195
g39
sVAttrStatus
p2196
I98343
sVSnsFlag
p2197
I17
sVMemberCount
p2198
I0
sVOwnerUin
p2199
I0
sVAlias
p2200
VJohnLee_Shearl
p2201
sVSignature
p2202
V\u9762\u671d\u5927\u6d77\uff0c\u5fc3\u6696\u989c\u5f00\uff01
p2203
sVContactFlag
p2204
I1
sVNickName
p2205
V\u975e\u4e00\u822c\u7684\u5f3a
p2206
sVRemarkPYQuanPin
p2207
g39
sVHeadImgUrl
p2208
V/cgi-bin/mmwebwx-bin/webwxgeticon?seq=677369201&username=@3010d1e62e35806c7c9d01a846437f2f5951bf5f5f697fd7468d6ef254989b09&skey=@crypt_19753c23_05fa7a994bb1092bdd72a1191a0443aa
p2209
sVSex
p2210
I1
sVStarFriend
p2211
I0
sVStatues
p2212
I0
sa(dp2213
VUserName
p2214
V@6e907bae4698a641ee5358fea944d791084a5bc9911ad6e3049c60d77614436e
p2215
sVCity
p2216
g39
sVDisplayName
p2217
g39
sVUniFriend
p2218
I0
sVMemberList
p2219
(lp2220
sVPYQuanPin
p2221
Vqingtian
p2222
sVRemarkPYInitial
p2223
VFAY
p2224
sVUin
p2225
I0
sVAppAccountFlag
p2226
I0
sVVerifyFlag
p2227
I0
sVProvince
p2228
g39
sVKeyWord
p2229
g39
sVRemarkName
p2230
V\u65b9\u963f\u59e8
p2231
sVPYInitial
p2232
VQT
p2233
sVChatRoomId
p2234
I0
sVIsOwner
p2235
I0
sVHideInputBarFlag
p2236
I0
sVEncryChatRoomId
p2237
g39
sVAttrStatus
p2238
I135205
sVSnsFlag
p2239
I17
sVMemberCount
p2240
I0
sVOwnerUin
p2241
I0
sVAlias
p2242
g39
sVSignature
p2243
g39
sVContactFlag
p2244
I1
sVNickName
p2245
V\u6674\u5929
p2246
sVRemarkPYQuanPin
p2247
Vfangayi
p2248
sVHeadImgUrl
p2249
V/cgi-bin/mmwebwx-bin/webwxgeticon?seq=654841261&username=@6e907bae4698a641ee5358fea944d791084a5bc9911ad6e3049c60d77614436e&skey=@crypt_19753c23_05fa7a994bb1092bdd72a1191a0443aa
p2250
sVSex
p2251
I0
sVStarFriend
p2252
I0
sVStatues
p2253
I0
sa(dp2254
VUserName
p2255
V@cfb182162034a18040d7a02074fca64f
p2256
sVCity
p2257
V\u829c\u6e56
p2258
sVDisplayName
p2259
g39
sVUniFriend
p2260
I0
sVMemberList
p2261
(lp2262
sVPYQuanPin
p2263
Vchengdehan
p2264
sVRemarkPYInitial
p2265
g39
sVUin
p2266
I0
sVAppAccountFlag
p2267
I0
sVVerifyFlag
p2268
I0
sVProvince
p2269
V\u5b89\u5fbd
p2270
sVKeyWord
p2271
Vcdh
p2272
sVRemarkName
p2273
g39
sVPYInitial
p2274
VCDH
p2275
sVChatRoomId
p2276
I0
sVIsOwner
p2277
I0
sVHideInputBarFlag
p2278
I0
sVEncryChatRoomId
p2279
g39
sVAttrStatus
p2280
I4223
sVSnsFlag
p2281
I17
sVMemberCount
p2282
I0
sVOwnerUin
p2283
I0
sVAlias
p2284
g39
sVSignature
p2285
g39
sVContactFlag
p2286
I1
sVNickName
p2287
V\u7a0b\u5fb7\u6657
p2288
sVRemarkPYQuanPin
p2289
g39
sVHeadImgUrl
p2290
V/cgi-bin/mmwebwx-bin/webwxgeticon?seq=640240057&username=@cfb182162034a18040d7a02074fca64f&skey=@crypt_19753c23_05fa7a994bb1092bdd72a1191a0443aa
p2291
sVSex
p2292
I1
sVStarFriend
p2293
I0
sVStatues
p2294
I0
sa(dp2295
VUserName
p2296
V@ae957f2075cb88943c3c2cb647038342785c1c5acc8998dba93a576b2771fe57
p2297
sVCity
p2298
V\u4e09\u660e
p2299
sVDisplayName
p2300
g39
sVUniFriend
p2301
I0
sVMemberList
p2302
(lp2303
sVPYQuanPin
p2304
Vjianglihong
p2305
sVRemarkPYInitial
p2306
g39
sVUin
p2307
I0
sVAppAccountFlag
p2308
I0
sVVerifyFlag
p2309
I0
sVProvince
p2310
V\u798f\u5efa
p2311
sVKeyWord
p2312
g39
sVRemarkName
p2313
g39
sVPYInitial
p2314
VJLH
p2315
sVChatRoomId
p2316
I0
sVIsOwner
p2317
I0
sVHideInputBarFlag
p2318
I0
sVEncryChatRoomId
p2319
g39
sVAttrStatus
p2320
I100389
sVSnsFlag
p2321
I49
sVMemberCount
p2322
I0
sVOwnerUin
p2323
I0
sVAlias
p2324
g39
sVSignature
p2325
g39
sVContactFlag
p2326
I1
sVNickName
p2327
V\u59dc\u4e3d\u7ea2
p2328
sVRemarkPYQuanPin
p2329
g39
sVHeadImgUrl
p2330
V/cgi-bin/mmwebwx-bin/webwxgeticon?seq=661020856&username=@ae957f2075cb88943c3c2cb647038342785c1c5acc8998dba93a576b2771fe57&skey=@crypt_19753c23_05fa7a994bb1092bdd72a1191a0443aa
p2331
sVSex
p2332
I2
sVStarFriend
p2333
I0
sVStatues
p2334
I0
sa(dp2335
VUserName
p2336
V@5e3f9d08981873b41bda1f7f8c63018d
p2337
sVCity
p2338
V\u82cf\u5dde
p2339
sVDisplayName
p2340
g39
sVUniFriend
p2341
I0
sVMemberList
p2342
(lp2343
sVPYQuanPin
p2344
Vbianyabin
p2345
sVRemarkPYInitial
p2346
g39
sVUin
p2347
I0
sVAppAccountFlag
p2348
I0
sVVerifyFlag
p2349
I0
sVProvince
p2350
V\u6c5f\u82cf
p2351
sVKeyWord
p2352
Vb11
p2353
sVRemarkName
p2354
g39
sVPYInitial
p2355
VBYB
p2356
sVChatRoomId
p2357
I0
sVIsOwner
p2358
I0
sVHideInputBarFlag
p2359
I0
sVEncryChatRoomId
p2360
g39
sVAttrStatus
p2361
I130151
sVSnsFlag
p2362
I17
sVMemberCount
p2363
I0
sVOwnerUin
p2364
I0
sVAlias
p2365
Vbianyabinzj
p2366
sVSignature
p2367
V\u597d\u5403\u4e0d\u8fc7\u997a\u5b50
p2368
sVContactFlag
p2369
I1
sVNickName
p2370
V\u8fb9\u4e9a\u658c
p2371
sVRemarkPYQuanPin
p2372
g39
sVHeadImgUrl
p2373
V/cgi-bin/mmwebwx-bin/webwxgeticon?seq=677369270&username=@5e3f9d08981873b41bda1f7f8c63018d&skey=@crypt_19753c23_05fa7a994bb1092bdd72a1191a0443aa
p2374
sVSex
p2375
I1
sVStarFriend
p2376
I0
sVStatues
p2377
I0
sa(dp2378
VUserName
p2379
V@c159524ed91692ae030f2c76d05aa1098b62e747c73f82bb7cf2ce66b8458e7e
p2380
sVCity
p2381
g39
sVDisplayName
p2382
g39
sVUniFriend
p2383
I0
sVMemberList
p2384
(lp2385
sVPYQuanPin
p2386
Vyuguotianqing
p2387
sVRemarkPYInitial
p2388
g39
sVUin
p2389
I0
sVAppAccountFlag
p2390
I0
sVVerifyFlag
p2391
I0
sVProvince
p2392
g39
sVKeyWord
p2393
g39
sVRemarkName
p2394
g39
sVPYInitial
p2395
VYGTQ
p2396
sVChatRoomId
p2397
I0
sVIsOwner
p2398
I0
sVHideInputBarFlag
p2399
I0
sVEncryChatRoomId
p2400
g39
sVAttrStatus
p2401
I98341
sVSnsFlag
p2402
I17
sVMemberCount
p2403
I0
sVOwnerUin
p2404
I0
sVAlias
p2405
g39
sVSignature
p2406
g39
sVContactFlag
p2407
I1
sVNickName
p2408
V\u96e8\u8fc7\u5929\u6674
p2409
sVRemarkPYQuanPin
p2410
g39
sVHeadImgUrl
p2411
V/cgi-bin/mmwebwx-bin/webwxgeticon?seq=631123039&username=@c159524ed91692ae030f2c76d05aa1098b62e747c73f82bb7cf2ce66b8458e7e&skey=@crypt_19753c23_05fa7a994bb1092bdd72a1191a0443aa
p2412
sVSex
p2413
I0
sVStarFriend
p2414
I0
sVStatues
p2415
I0
sa(dp2416
VUserName
p2417
V@dfac6c1781914c1d88547a8ab279f84ac557aaed4361ecdca8c186654fb5971d
p2418
sVCity
p2419
V\u829c\u6e56
p2420
sVDisplayName
p2421
g39
sVUniFriend
p2422
I0
sVMemberList
p2423
(lp2424
sVPYQuanPin
p2425
Vjianghongwei
p2426
sVRemarkPYInitial
p2427
VBBLT
p2428
sVUin
p2429
I0
sVAppAccountFlag
p2430
I0
sVVerifyFlag
p2431
I0
sVProvince
p2432
V\u5b89\u5fbd
p2433
sVKeyWord
p2434
g39
sVRemarkName
p2435
V\u7238\u7238\u8054\u901a
p2436
sVPYInitial
p2437
VJHW
p2438
sVChatRoomId
p2439
I0
sVIsOwner
p2440
I0
sVHideInputBarFlag
p2441
I0
sVEncryChatRoomId
p2442
g39
sVAttrStatus
p2443
I4133
sVSnsFlag
p2444
I17
sVMemberCount
p2445
I0
sVOwnerUin
p2446
I0
sVAlias
p2447
g39
sVSignature
p2448
g39
sVContactFlag
p2449
I1
sVNickName
p2450
V\u59dc\u5b8f\u4f1f
p2451
sVRemarkPYQuanPin
p2452
Vbabaliantong
p2453
sVHeadImgUrl
p2454
V/cgi-bin/mmwebwx-bin/webwxgeticon?seq=677368562&username=@dfac6c1781914c1d88547a8ab279f84ac557aaed4361ecdca8c186654fb5971d&skey=@crypt_19753c23_05fa7a994bb1092bdd72a1191a0443aa
p2455
sVSex
p2456
I1
sVStarFriend
p2457
I0
sVStatues
p2458
I0
sa(dp2459
VUserName
p2460
V@dea4c11547b483dfe51ac9ac3737c672
p2461
sVCity
p2462
V\u82cf\u5dde
p2463
sVDisplayName
p2464
g39
sVUniFriend
p2465
I0
sVMemberList
p2466
(lp2467
sVPYQuanPin
p2468
VSheldonli
p2469
sVRemarkPYInitial
p2470
g39
sVUin
p2471
I0
sVAppAccountFlag
p2472
I0
sVVerifyFlag
p2473
I0
sVProvince
p2474
V\u6c5f\u82cf
p2475
sVKeyWord
p2476
Vxia
p2477
sVRemarkName
p2478
g39
sVPYInitial
p2479
VSHELDONL
p2480
sVChatRoomId
p2481
I0
sVIsOwner
p2482
I0
sVHideInputBarFlag
p2483
I0
sVEncryChatRoomId
p2484
g39
sVAttrStatus
p2485
I33657279
sVSnsFlag
p2486
I17
sVMemberCount
p2487
I0
sVOwnerUin
p2488
I0
sVAlias
p2489
g39
sVSignature
p2490
VCrazy for you,
p2491
sVContactFlag
p2492
I1
sVNickName
p2493
VSheldon.\u674e
p2494
sVRemarkPYQuanPin
p2495
g39
sVHeadImgUrl
p2496
V/cgi-bin/mmwebwx-bin/webwxgeticon?seq=645301235&username=@dea4c11547b483dfe51ac9ac3737c672&skey=@crypt_19753c23_05fa7a994bb1092bdd72a1191a0443aa
p2497
sVSex
p2498
I1
sVStarFriend
p2499
I0
sVStatues
p2500
I0
sa(dp2501
VUserName
p2502
V@2cb638ae3e463fd94a12b19f78d4e20a
p2503
sVCity
p2504
V\u5357\u4eac
p2505
sVDisplayName
p2506
g39
sVUniFriend
p2507
I0
sVMemberList
p2508
(lp2509
sVPYQuanPin
p2510
Vwangleijie
p2511
sVRemarkPYInitial
p2512
g39
sVUin
p2513
I0
sVAppAccountFlag
p2514
I0
sVVerifyFlag
p2515
I0
sVProvince
p2516
V\u6c5f\u82cf
p2517
sVKeyWord
p2518
Vshu
p2519
sVRemarkName
p2520
g39
sVPYInitial
p2521
VWLJ
p2522
sVChatRoomId
p2523
I0
sVIsOwner
p2524
I0
sVHideInputBarFlag
p2525
I0
sVEncryChatRoomId
p2526
g39
sVAttrStatus
p2527
I102439
sVSnsFlag
p2528
I17
sVMemberCount
p2529
I0
sVOwnerUin
p2530
I0
sVAlias
p2531
g39
sVSignature
p2532
V\u53ea\u8981\u597d\u597d\u5b66\u4e60\uff0c\u5c31\u80fd\u5929\u5929\u5411\u4e0a...
p2533
sVContactFlag
p2534
I1
sVNickName
p2535
V\u738b\u78ca\u6770
p2536
sVRemarkPYQuanPin
p2537
g39
sVHeadImgUrl
p2538
V/cgi-bin/mmwebwx-bin/webwxgeticon?seq=677369845&username=@2cb638ae3e463fd94a12b19f78d4e20a&skey=@crypt_19753c23_05fa7a994bb1092bdd72a1191a0443aa
p2539
sVSex
p2540
I1
sVStarFriend
p2541
I0
sVStatues
p2542
I0
sa(dp2543
VUserName
p2544
V@81b15159a0aab87559becb43c95375c8
p2545
sVCity
p2546
V\u829c\u6e56
p2547
sVDisplayName
p2548
g39
sVUniFriend
p2549
I0
sVMemberList
p2550
(lp2551
sVPYQuanPin
p2552
Vqianqian
p2553
sVRemarkPYInitial
p2554
g39
sVUin
p2555
I0
sVAppAccountFlag
p2556
I0
sVVerifyFlag
p2557
I0
sVProvince
p2558
V\u5b89\u5fbd
p2559
sVKeyWord
p2560
Vque
p2561
sVRemarkName
p2562
g39
sVPYInitial
p2563
VQQ
p2564
sVChatRoomId
p2565
I0
sVIsOwner
p2566
I0
sVHideInputBarFlag
p2567
I0
sVEncryChatRoomId
p2568
g39
sVAttrStatus
p2569
I100453
sVSnsFlag
p2570
I49
sVMemberCount
p2571
I0
sVOwnerUin
p2572
I0
sVAlias
p2573
g39
sVSignature
p2574
g39
sVContactFlag
p2575
I1
sVNickName
p2576
V\u5029\u5029
p2577
sVRemarkPYQuanPin
p2578
g39
sVHeadImgUrl
p2579
V/cgi-bin/mmwebwx-bin/webwxgeticon?seq=677360363&username=@81b15159a0aab87559becb43c95375c8&skey=@crypt_19753c23_05fa7a994bb1092bdd72a1191a0443aa
p2580
sVSex
p2581
I2
sVStarFriend
p2582
I0
sVStatues
p2583
I0
sa(dp2584
VUserName
p2585
V@b09505d13e32aa5a33419c10338ec387
p2586
sVCity
p2587
V\u829c\u6e56
p2588
sVDisplayName
p2589
g39
sVUniFriend
p2590
I0
sVMemberList
p2591
(lp2592
sVPYQuanPin
p2593
Vhuanghuijuan
p2594
sVRemarkPYInitial
p2595
VHHJ
p2596
sVUin
p2597
I0
sVAppAccountFlag
p2598
I0
sVVerifyFlag
p2599
I0
sVProvince
p2600
V\u5b89\u5fbd
p2601
sVKeyWord
p2602
VEle
p2603
sVRemarkName
p2604
V\u9ec4\u6167\u5a1f
p2605
sVPYInitial
p2606
VHHJ
p2607
sVChatRoomId
p2608
I0
sVIsOwner
p2609
I0
sVHideInputBarFlag
p2610
I0
sVEncryChatRoomId
p2611
g39
sVAttrStatus
p2612
I104885
sVSnsFlag
p2613
I49
sVMemberCount
p2614
I0
sVOwnerUin
p2615
I0
sVAlias
p2616
g39
sVSignature
p2617
V\u624b\u673a\u53f7\u4e0d\u53d8\uff0c\u4ecd\u7136\u662f\u829c\u6e56\u53f7\u7801
p2618
sVContactFlag
p2619
I1
sVNickName
p2620
V\u9ec4\u6167\u5a1f
p2621
sVRemarkPYQuanPin
p2622
Vhuanghuijuan
p2623
sVHeadImgUrl
p2624
V/cgi-bin/mmwebwx-bin/webwxgeticon?seq=661000116&username=@b09505d13e32aa5a33419c10338ec387&skey=@crypt_19753c23_05fa7a994bb1092bdd72a1191a0443aa
p2625
sVSex
p2626
I2
sVStarFriend
p2627
I0
sVStatues
p2628
I0
sa(dp2629
VUserName
p2630
V@ae8948b7ed34ce130688460673414ba47c16e28a2a56fb022cce826a9915bce7
p2631
sVCity
p2632
V\u957f\u6c99
p2633
sVDisplayName
p2634
g39
sVUniFriend
p2635
I0
sVMemberList
p2636
(lp2637
sVPYQuanPin
p2638
VHC
p2639
sVRemarkPYInitial
p2640
g39
sVUin
p2641
I0
sVAppAccountFlag
p2642
I0
sVVerifyFlag
p2643
I0
sVProvince
p2644
V\u6e56\u5357
p2645
sVKeyWord
p2646
g39
sVRemarkName
p2647
g39
sVPYInitial
p2648
VHC
p2649
sVChatRoomId
p2650
I0
sVIsOwner
p2651
I0
sVHideInputBarFlag
p2652
I0
sVEncryChatRoomId
p2653
g39
sVAttrStatus
p2654
I16781347
sVSnsFlag
p2655
I17
sVMemberCount
p2656
I0
sVOwnerUin
p2657
I0
sVAlias
p2658
g39
sVSignature
p2659
V\u597d\u597d\u5de5\u4f5c\uff0c\u5929\u5929\u5411\u4e0a
p2660
sVContactFlag
p2661
I1
sVNickName
p2662
VHC
p2663
sVRemarkPYQuanPin
p2664
g39
sVHeadImgUrl
p2665
V/cgi-bin/mmwebwx-bin/webwxgeticon?seq=634761796&username=@ae8948b7ed34ce130688460673414ba47c16e28a2a56fb022cce826a9915bce7&skey=@crypt_19753c23_05fa7a994bb1092bdd72a1191a0443aa
p2666
sVSex
p2667
I1
sVStarFriend
p2668
I0
sVStatues
p2669
I0
sa(dp2670
VUserName
p2671
V@a156639e6d20851c65e1ae89d9c0f8573ead19bcae583060bfd00f5e4cedbb45
p2672
sVCity
p2673
V\u5357\u4eac
p2674
sVDisplayName
p2675
g39
sVUniFriend
p2676
I0
sVMemberList
p2677
(lp2678
sVPYQuanPin
p2679
Vzouweijun
p2680
sVRemarkPYInitial
p2681
VZWJ
p2682
sVUin
p2683
I0
sVAppAccountFlag
p2684
I0
sVVerifyFlag
p2685
I0
sVProvince
p2686
V\u6c5f\u82cf
p2687
sVKeyWord
p2688
g39
sVRemarkName
p2689
V\u90b9\u536b\u519b
p2690
sVPYInitial
p2691
VZWJ
p2692
sVChatRoomId
p2693
I0
sVIsOwner
p2694
I0
sVHideInputBarFlag
p2695
I0
sVEncryChatRoomId
p2696
g39
sVAttrStatus
p2697
I135205
sVSnsFlag
p2698
I17
sVMemberCount
p2699
I0
sVOwnerUin
p2700
I0
sVAlias
p2701
g39
sVSignature
p2702
g39
sVContactFlag
p2703
I1
sVNickName
p2704
V\u90b9\u536b\u519b
p2705
sVRemarkPYQuanPin
p2706
Vzouweijun
p2707
sVHeadImgUrl
p2708
V/cgi-bin/mmwebwx-bin/webwxgeticon?seq=660997984&username=@a156639e6d20851c65e1ae89d9c0f8573ead19bcae583060bfd00f5e4cedbb45&skey=@crypt_19753c23_05fa7a994bb1092bdd72a1191a0443aa
p2709
sVSex
p2710
I1
sVStarFriend
p2711
I0
sVStatues
p2712
I0
sa(dp2713
VUserName
p2714
V@b6ebdfe9c63988f269d662c8de6e53cf
p2715
sVCity
p2716
V\u4e1c\u839e
p2717
sVDisplayName
p2718
g39
sVUniFriend
p2719
I0
sVMemberList
p2720
(lp2721
sVPYQuanPin
p2722
VEricliucong
p2723
sVRemarkPYInitial
p2724
g39
sVUin
p2725
I0
sVAppAccountFlag
p2726
I0
sVVerifyFlag
p2727
I0
sVProvince
p2728
V\u5e7f\u4e1c
p2729
sVKeyWord
p2730
Veri
p2731
sVRemarkName
p2732
g39
sVPYInitial
p2733
VERICLC
p2734
sVChatRoomId
p2735
I0
sVIsOwner
p2736
I0
sVHideInputBarFlag
p2737
I0
sVEncryChatRoomId
p2738
g39
sVAttrStatus
p2739
I104895
sVSnsFlag
p2740
I49
sVMemberCount
p2741
I0
sVOwnerUin
p2742
I0
sVAlias
p2743
g39
sVSignature
p2744
g39
sVContactFlag
p2745
I1
sVNickName
p2746
VEric-\u5218\u806a
p2747
sVRemarkPYQuanPin
p2748
g39
sVHeadImgUrl
p2749
V/cgi-bin/mmwebwx-bin/webwxgeticon?seq=677369593&username=@b6ebdfe9c63988f269d662c8de6e53cf&skey=@crypt_19753c23_05fa7a994bb1092bdd72a1191a0443aa
p2750
sVSex
p2751
I1
sVStarFriend
p2752
I0
sVStatues
p2753
I0
sa(dp2754
VUserName
p2755
V@dcece5cae00d8d77ddd0b6c62377966f
p2756
sVCity
p2757
V\u82cf\u5dde
p2758
sVDisplayName
p2759
g39
sVUniFriend
p2760
I0
sVMemberList
p2761
(lp2762
sVPYQuanPin
p2763
Vxiaojiandun
p2764
sVRemarkPYInitial
p2765
VLXDSX
p2766
sVUin
p2767
I0
sVAppAccountFlag
p2768
I0
sVVerifyFlag
p2769
I0
sVProvince
p2770
V\u6c5f\u82cf
p2771
sVKeyWord
p2772
Vlxd
p2773
sVRemarkName
p2774
V\u5218\u6653\u680b\u5e08\u5144
p2775
sVPYInitial
p2776
VXJD
p2777
sVChatRoomId
p2778
I0
sVIsOwner
p2779
I0
sVHideInputBarFlag
p2780
I0
sVEncryChatRoomId
p2781
g39
sVAttrStatus
p2782
I65575
sVSnsFlag
p2783
I49
sVMemberCount
p2784
I0
sVOwnerUin
p2785
I0
sVAlias
p2786
g39
sVSignature
p2787
g39
sVContactFlag
p2788
I1
sVNickName
p2789
V\u7b11\u5251\u949d
p2790
sVRemarkPYQuanPin
p2791
Vliuxiaodongshixiong
p2792
sVHeadImgUrl
p2793
V/cgi-bin/mmwebwx-bin/webwxgeticon?seq=641113789&username=@dcece5cae00d8d77ddd0b6c62377966f&skey=@crypt_19753c23_05fa7a994bb1092bdd72a1191a0443aa
p2794
sVSex
p2795
I1
sVStarFriend
p2796
I0
sVStatues
p2797
I0
sa(dp2798
VUserName
p2799
V@f9db14c37a49c558e4aa235b6e62f0ab
p2800
sVCity
p2801
V\u5357\u4eac
p2802
sVDisplayName
p2803
g39
sVUniFriend
p2804
I0
sVMemberList
p2805
(lp2806
sVPYQuanPin
p2807
V??rongrongspanclassemojiemoji1f423span
p2808
sVRemarkPYInitial
p2809
g39
sVUin
p2810
I0
sVAppAccountFlag
p2811
I0
sVVerifyFlag
p2812
I0
sVProvince
p2813
V\u6c5f\u82cf
p2814
sVKeyWord
p2815
Vtao
p2816
sVRemarkName
p2817
g39
sVPYInitial
p2818
V??RRSPANCLASSEMOJIEMOJI1F423SPAN
p2819
sVChatRoomId
p2820
I0
sVIsOwner
p2821
I0
sVHideInputBarFlag
p2822
I0
sVEncryChatRoomId
p2823
g39
sVAttrStatus
p2824
I101479
sVSnsFlag
p2825
I49
sVMemberCount
p2826
I0
sVOwnerUin
p2827
I0
sVAlias
p2828
g39
sVSignature
p2829
V\u829c\u6e56\u53f718905539906\u2026\u4eb2\u4eec\u52a8\u52a8\u624b\u6307\u4fdd\u5b58\u4e00\u4e0b\u4e0b\u2026\u5357\u4eac\u53f7\u5373\u5c06\u505c\u7528
p2830
sVContactFlag
p2831
I1
sVNickName
p2832
V\U0001f37c\U0001f351\u84c9\u84c9\U0001f423
p2833
sVRemarkPYQuanPin
p2834
g39
sVHeadImgUrl
p2835
V/cgi-bin/mmwebwx-bin/webwxgeticon?seq=677366089&username=@f9db14c37a49c558e4aa235b6e62f0ab&skey=@crypt_19753c23_05fa7a994bb1092bdd72a1191a0443aa
p2836
sVSex
p2837
I2
sVStarFriend
p2838
I0
sVStatues
p2839
I0
sa(dp2840
VUserName
p2841
V@cef59f062b6bb87e37893254b806021f269aeda8230f1a39062c1a1d6fd938ed
p2842
sVCity
p2843
V\u676d\u5dde
p2844
sVDisplayName
p2845
g39
sVUniFriend
p2846
I0
sVMemberList
p2847
(lp2848
sVPYQuanPin
p2849
VCosmoDu
p2850
sVRemarkPYInitial
p2851
g39
sVUin
p2852
I0
sVAppAccountFlag
p2853
I0
sVVerifyFlag
p2854
I0
sVProvince
p2855
V\u6d59\u6c5f
p2856
sVKeyWord
p2857
g39
sVRemarkName
p2858
g39
sVPYInitial
p2859
VCOSMODU
p2860
sVChatRoomId
p2861
I0
sVIsOwner
p2862
I0
sVHideInputBarFlag
p2863
I0
sVEncryChatRoomId
p2864
g39
sVAttrStatus
p2865
I4423871
sVSnsFlag
p2866
I49
sVMemberCount
p2867
I0
sVOwnerUin
p2868
I0
sVAlias
p2869
Vansweror
p2870
sVSignature
p2871
V(*\uff9f\u25bd\uff9f)\uff89
p2872
sVContactFlag
p2873
I1
sVNickName
p2874
VCosmo Du
p2875
sVRemarkPYQuanPin
p2876
g39
sVHeadImgUrl
p2877
V/cgi-bin/mmwebwx-bin/webwxgeticon?seq=632633032&username=@cef59f062b6bb87e37893254b806021f269aeda8230f1a39062c1a1d6fd938ed&skey=@crypt_19753c23_05fa7a994bb1092bdd72a1191a0443aa
p2878
sVSex
p2879
I1
sVStarFriend
p2880
I0
sVStatues
p2881
I0
sa(dp2882
VUserName
p2883
V@02bee8ae719d1723dc02d31e2c9bbfd81d8e059b54d3e1bcd1412cdcb4621f55
p2884
sVCity
p2885
V\u829c\u6e56
p2886
sVDisplayName
p2887
g39
sVUniFriend
p2888
I0
sVMemberList
p2889
(lp2890
sVPYQuanPin
p2891
Vgebilaochen
p2892
sVRemarkPYInitial
p2893
g39
sVUin
p2894
I0
sVAppAccountFlag
p2895
I0
sVVerifyFlag
p2896
I0
sVProvince
p2897
V\u5b89\u5fbd
p2898
sVKeyWord
p2899
Vche
p2900
sVRemarkName
p2901
g39
sVPYInitial
p2902
VGBLC
p2903
sVChatRoomId
p2904
I0
sVIsOwner
p2905
I0
sVHideInputBarFlag
p2906
I0
sVEncryChatRoomId
p2907
g39
sVAttrStatus
p2908
I102503
sVSnsFlag
p2909
I17
sVMemberCount
p2910
I0
sVOwnerUin
p2911
I0
sVAlias
p2912
g39
sVSignature
p2913
V\u4f60\u8eab\u8fb9\u7684\u65e5\u8d27\u642c\u8fd0\u5de5
p2914
sVContactFlag
p2915
I1
sVNickName
p2916
V\u9694\u58c1\u8001\u9648
p2917
sVRemarkPYQuanPin
p2918
g39
sVHeadImgUrl
p2919
V/cgi-bin/mmwebwx-bin/webwxgeticon?seq=661014196&username=@02bee8ae719d1723dc02d31e2c9bbfd81d8e059b54d3e1bcd1412cdcb4621f55&skey=@crypt_19753c23_05fa7a994bb1092bdd72a1191a0443aa
p2920
sVSex
p2921
I1
sVStarFriend
p2922
I0
sVStatues
p2923
I0
sa(dp2924
VUserName
p2925
V@f5214365d85d9bb8cfeb38c841fec756fe3da16bb846dc4c7d52268666f1d67b
p2926
sVCity
p2927
V\u829c\u6e56
p2928
sVDisplayName
p2929
g39
sVUniFriend
p2930
I0
sVMemberList
p2931
(lp2932
sVPYQuanPin
p2933
Vjunma
p2934
sVRemarkPYInitial
p2935
g39
sVUin
p2936
I0
sVAppAccountFlag
p2937
I0
sVVerifyFlag
p2938
I0
sVProvince
p2939
V\u5b89\u5fbd
p2940
sVKeyWord
p2941
g39
sVRemarkName
p2942
g39
sVPYInitial
p2943
VJM
p2944
sVChatRoomId
p2945
I0
sVIsOwner
p2946
I0
sVHideInputBarFlag
p2947
I0
sVEncryChatRoomId
p2948
g39
sVAttrStatus
p2949
I102439
sVSnsFlag
p2950
I49
sVMemberCount
p2951
I0
sVOwnerUin
p2952
I0
sVAlias
p2953
Vthy5209322
p2954
sVSignature
p2955
g39
sVContactFlag
p2956
I1
sVNickName
p2957
V\u541b\u9a6c
p2958
sVRemarkPYQuanPin
p2959
g39
sVHeadImgUrl
p2960
V/cgi-bin/mmwebwx-bin/webwxgeticon?seq=660998320&username=@f5214365d85d9bb8cfeb38c841fec756fe3da16bb846dc4c7d52268666f1d67b&skey=@crypt_19753c23_05fa7a994bb1092bdd72a1191a0443aa
p2961
sVSex
p2962
I2
sVStarFriend
p2963
I0
sVStatues
p2964
I0
sa(dp2965
VUserName
p2966
V@b5541b790751a864b25172585a2168d4
p2967
sVCity
p2968
V\u677e\u6c5f
p2969
sVDisplayName
p2970
g39
sVUniFriend
p2971
I0
sVMemberList
p2972
(lp2973
sVPYQuanPin
p2974
Vweilaidepanzi
p2975
sVRemarkPYInitial
p2976
g39
sVUin
p2977
I0
sVAppAccountFlag
p2978
I0
sVVerifyFlag
p2979
I0
sVProvince
p2980
V\u4e0a\u6d77
p2981
sVKeyWord
p2982
Vwei
p2983
sVRemarkName
p2984
g39
sVPYInitial
p2985
VWLDPZ
p2986
sVChatRoomId
p2987
I0
sVIsOwner
p2988
I0
sVHideInputBarFlag
p2989
I0
sVEncryChatRoomId
p2990
g39
sVAttrStatus
p2991
I108647
sVSnsFlag
p2992
I49
sVMemberCount
p2993
I0
sVOwnerUin
p2994
I0
sVAlias
p2995
g39
sVSignature
p2996
V\u76f8\u6fe1\u4ee5\u6cab\uff0c\u4e0d\u5982\u76f8\u5fd8\u4e8e\u6c5f\u6e56
p2997
sVContactFlag
p2998
I1
sVNickName
p2999
V\u672a\u6765\u7684\u80d6\u5b50
p3000
sVRemarkPYQuanPin
p3001
g39
sVHeadImgUrl
p3002
V/cgi-bin/mmwebwx-bin/webwxgeticon?seq=660980457&username=@b5541b790751a864b25172585a2168d4&skey=@crypt_19753c23_05fa7a994bb1092bdd72a1191a0443aa
p3003
sVSex
p3004
I1
sVStarFriend
p3005
I0
sVStatues
p3006
I0
sa(dp3007
VUserName
p3008
V@4a8b6334ebf131328fe01e1ca5912b41
p3009
sVCity
p3010
V\u676d\u5dde
p3011
sVDisplayName
p3012
g39
sVUniFriend
p3013
I0
sVMemberList
p3014
(lp3015
sVPYQuanPin
p3016
Vsunnayong
p3017
sVRemarkPYInitial
p3018
g39
sVUin
p3019
I0
sVAppAccountFlag
p3020
I0
sVVerifyFlag
p3021
I0
sVProvince
p3022
V\u6d59\u6c5f
p3023
sVKeyWord
p3024
Vsn_
p3025
sVRemarkName
p3026
g39
sVPYInitial
p3027
VSNY
p3028
sVChatRoomId
p3029
I0
sVIsOwner
p3030
I0
sVHideInputBarFlag
p3031
I0
sVEncryChatRoomId
p3032
g39
sVAttrStatus
p3033
I102439
sVSnsFlag
p3034
I49
sVMemberCount
p3035
I0
sVOwnerUin
p3036
I0
sVAlias
p3037
g39
sVSignature
p3038
V\u5728\u5bb6\u6bcf\u5929\u5403\u9971\u4e86\u6491\u7684
p3039
sVContactFlag
p3040
I1
sVNickName
p3041
V\u5b59\u5357\u52c7
p3042
sVRemarkPYQuanPin
p3043
g39
sVHeadImgUrl
p3044
V/cgi-bin/mmwebwx-bin/webwxgeticon?seq=660991404&username=@4a8b6334ebf131328fe01e1ca5912b41&skey=@crypt_19753c23_05fa7a994bb1092bdd72a1191a0443aa
p3045
sVSex
p3046
I1
sVStarFriend
p3047
I0
sVStatues
p3048
I0
sa(dp3049
VUserName
p3050
V@5aa8710940db3d3f625beeaac326cd97
p3051
sVCity
p3052
V\u676d\u5dde
p3053
sVDisplayName
p3054
g39
sVUniFriend
p3055
I0
sVMemberList
p3056
(lp3057
sVPYQuanPin
p3058
Vkeyaodexiaomianyang
p3059
sVRemarkPYInitial
p3060
g39
sVUin
p3061
I0
sVAppAccountFlag
p3062
I0
sVVerifyFlag
p3063
I0
sVProvince
p3064
V\u6d59\u6c5f
p3065
sVKeyWord
p3066
Vken
p3067
sVRemarkName
p3068
g39
sVPYInitial
p3069
VKYDXMY
p3070
sVChatRoomId
p3071
I0
sVIsOwner
p3072
I0
sVHideInputBarFlag
p3073
I0
sVEncryChatRoomId
p3074
g39
sVAttrStatus
p3075
I33554533
sVSnsFlag
p3076
I17
sVMemberCount
p3077
I0
sVOwnerUin
p3078
I0
sVAlias
p3079
g39
sVSignature
p3080
g39
sVContactFlag
p3081
I8193
sVNickName
p3082
V\u55d1\u836f\u7684\u5c0f\u7ef5\u7f8a
p3083
sVRemarkPYQuanPin
p3084
g39
sVHeadImgUrl
p3085
V/cgi-bin/mmwebwx-bin/webwxgeticon?seq=654841692&username=@5aa8710940db3d3f625beeaac326cd97&skey=@crypt_19753c23_05fa7a994bb1092bdd72a1191a0443aa
p3086
sVSex
p3087
I1
sVStarFriend
p3088
I0
sVStatues
p3089
I0
sa(dp3090
VUserName
p3091
V@db17ae8dbcdcbf80e0f781db2a8d6c9c
p3092
sVCity
p3093
V\u6d4e\u5357
p3094
sVDisplayName
p3095
g39
sVUniFriend
p3096
I0
sVMemberList
p3097
(lp3098
sVPYQuanPin
p3099
VMichaelHou
p3100
sVRemarkPYInitial
p3101
g39
sVUin
p3102
I0
sVAppAccountFlag
p3103
I0
sVVerifyFlag
p3104
I0
sVProvince
p3105
V\u5c71\u4e1c
p3106
sVKeyWord
p3107
Vzhi
p3108
sVRemarkName
p3109
g39
sVPYInitial
p3110
VMICHAELHOU
p3111
sVChatRoomId
p3112
I0
sVIsOwner
p3113
I0
sVHideInputBarFlag
p3114
I0
sVEncryChatRoomId
p3115
g39
sVAttrStatus
p3116
I33603687
sVSnsFlag
p3117
I17
sVMemberCount
p3118
I0
sVOwnerUin
p3119
I0
sVAlias
p3120
Vlovexbm
p3121
sVSignature
p3122
Vmy life my way.
p3123
sVContactFlag
p3124
I1
sVNickName
p3125
VMichaelHou
p3126
sVRemarkPYQuanPin
p3127
g39
sVHeadImgUrl
p3128
V/cgi-bin/mmwebwx-bin/webwxgeticon?seq=641114393&username=@db17ae8dbcdcbf80e0f781db2a8d6c9c&skey=@crypt_19753c23_05fa7a994bb1092bdd72a1191a0443aa
p3129
sVSex
p3130
I1
sVStarFriend
p3131
I0
sVStatues
p3132
I0
sa(dp3133
VUserName
p3134
V@f02cf7779517343340b60411b90e904bfbfd7204b582bc8c8be5db56779ed7a2
p3135
sVCity
p3136
V\u4e09\u660e
p3137
sVDisplayName
p3138
g39
sVUniFriend
p3139
I0
sVMemberList
p3140
(lp3141
sVPYQuanPin
p3142
Vjiangli
p3143
sVRemarkPYInitial
p3144
g39
sVUin
p3145
I0
sVAppAccountFlag
p3146
I0
sVVerifyFlag
p3147
I0
sVProvince
p3148
V\u798f\u5efa
p3149
sVKeyWord
p3150
g39
sVRemarkName
p3151
g39
sVPYInitial
p3152
VJL
p3153
sVChatRoomId
p3154
I0
sVIsOwner
p3155
I0
sVHideInputBarFlag
p3156
I0
sVEncryChatRoomId
p3157
g39
sVAttrStatus
p3158
I102589
sVSnsFlag
p3159
I17
sVMemberCount
p3160
I0
sVOwnerUin
p3161
I0
sVAlias
p3162
Vjianglizxh
p3163
sVSignature
p3164
V\u4e00\u8f88\u5b50\u7684\u5b64\u5355
p3165
sVContactFlag
p3166
I65793
sVNickName
p3167
V\u59dc\u4e3d
p3168
sVRemarkPYQuanPin
p3169
g39
sVHeadImgUrl
p3170
V/cgi-bin/mmwebwx-bin/webwxgeticon?seq=660982158&username=@f02cf7779517343340b60411b90e904bfbfd7204b582bc8c8be5db56779ed7a2&skey=@crypt_19753c23_05fa7a994bb1092bdd72a1191a0443aa
p3171
sVSex
p3172
I2
sVStarFriend
p3173
I0
sVStatues
p3174
I0
sa(dp3175
VUserName
p3176
V@f5499d2d4334f0b5c92a98dc63800d351fed91ccd745d3b80d0ee675d9b7caf4
p3177
sVCity
p3178
V\u5357\u4eac
p3179
sVDisplayName
p3180
g39
sVUniFriend
p3181
I0
sVMemberList
p3182
(lp3183
sVPYQuanPin
p3184
Vchenyu
p3185
sVRemarkPYInitial
p3186
g39
sVUin
p3187
I0
sVAppAccountFlag
p3188
I0
sVVerifyFlag
p3189
I0
sVProvince
p3190
V\u6c5f\u82cf
p3191
sVKeyWord
p3192
g39
sVRemarkName
p3193
g39
sVPYInitial
p3194
VCY
p3195
sVChatRoomId
p3196
I0
sVIsOwner
p3197
I0
sVHideInputBarFlag
p3198
I0
sVEncryChatRoomId
p3199
g39
sVAttrStatus
p3200
I16883813
sVSnsFlag
p3201
I17
sVMemberCount
p3202
I0
sVOwnerUin
p3203
I0
sVAlias
p3204
g39
sVSignature
p3205
g39
sVContactFlag
p3206
I1
sVNickName
p3207
V\u9648\u715c
p3208
sVRemarkPYQuanPin
p3209
g39
sVHeadImgUrl
p3210
V/cgi-bin/mmwebwx-bin/webwxgeticon?seq=632633362&username=@f5499d2d4334f0b5c92a98dc63800d351fed91ccd745d3b80d0ee675d9b7caf4&skey=@crypt_19753c23_05fa7a994bb1092bdd72a1191a0443aa
p3211
sVSex
p3212
I1
sVStarFriend
p3213
I0
sVStatues
p3214
I0
sa(dp3215
VUserName
p3216
V@d5acb5b890d98f82b40a1c230247a54e
p3217
sVCity
p3218
g39
sVDisplayName
p3219
g39
sVUniFriend
p3220
I0
sVMemberList
p3221
(lp3222
sVPYQuanPin
p3223
Vxiaowu
p3224
sVRemarkPYInitial
p3225
VZRW
p3226
sVUin
p3227
I0
sVAppAccountFlag
p3228
I0
sVVerifyFlag
p3229
I0
sVProvince
p3230
g39
sVKeyWord
p3231
Vzho
p3232
sVRemarkName
p3233
V\u949f\u6da6\u4f0d
p3234
sVPYInitial
p3235
VXW
p3236
sVChatRoomId
p3237
I0
sVIsOwner
p3238
I0
sVHideInputBarFlag
p3239
I0
sVEncryChatRoomId
p3240
g39
sVAttrStatus
p3241
I106495
sVSnsFlag
p3242
I17
sVMemberCount
p3243
I0
sVOwnerUin
p3244
I0
sVAlias
p3245
g39
sVSignature
p3246
V\u8c01\u4f1a\u4e0d\u538c\u5176\u70e6\u7684\u5b89\u6170\u90a3\u65e0\u77e5\u7684\u5c11\u5e74
p3247
sVContactFlag
p3248
I1
sVNickName
p3249
V\u5c0f\u4f0d
p3250
sVRemarkPYQuanPin
p3251
Vzhongrunwu
p3252
sVHeadImgUrl
p3253
V/cgi-bin/mmwebwx-bin/webwxgeticon?seq=621820937&username=@d5acb5b890d98f82b40a1c230247a54e&skey=@crypt_19753c23_05fa7a994bb1092bdd72a1191a0443aa
p3254
sVSex
p3255
I1
sVStarFriend
p3256
I0
sVStatues
p3257
I0
sa(dp3258
VUserName
p3259
V@1e4468c22da8218a69bad6931e50d5d5
p3260
sVCity
p3261
V\u5ba3\u57ce
p3262
sVDisplayName
p3263
g39
sVUniFriend
p3264
I0
sVMemberList
p3265
(lp3266
sVPYQuanPin
p3267
Vruo
p3268
sVRemarkPYInitial
p3269
g39
sVUin
p3270
I0
sVAppAccountFlag
p3271
I0
sVVerifyFlag
p3272
I0
sVProvince
p3273
V\u5b89\u5fbd
p3274
sVKeyWord
p3275
Vkin
p3276
sVRemarkName
p3277
g39
sVPYInitial
p3278
VR
p3279
sVChatRoomId
p3280
I0
sVIsOwner
p3281
I0
sVHideInputBarFlag
p3282
I0
sVEncryChatRoomId
p3283
g39
sVAttrStatus
p3284
I16777319
sVSnsFlag
p3285
I17
sVMemberCount
p3286
I0
sVOwnerUin
p3287
I0
sVAlias
p3288
VBonze19
p3289
sVSignature
p3290
VA universal card's self cultivation.
p3291
sVContactFlag
p3292
I1
sVNickName
p3293
V\u7bac
p3294
sVRemarkPYQuanPin
p3295
g39
sVHeadImgUrl
p3296
V/cgi-bin/mmwebwx-bin/webwxgeticon?seq=661002990&username=@1e4468c22da8218a69bad6931e50d5d5&skey=@crypt_19753c23_05fa7a994bb1092bdd72a1191a0443aa
p3297
sVSex
p3298
I1
sVStarFriend
p3299
I0
sVStatues
p3300
I0
sa(dp3301
VUserName
p3302
V@7f3e0f773d9cd852cb1a196faddfc02b
p3303
sVCity
p3304
V\u829c\u6e56
p3305
sVDisplayName
p3306
g39
sVUniFriend
p3307
I0
sVMemberList
p3308
(lp3309
sVPYQuanPin
p3310
Vliwei
p3311
sVRemarkPYInitial
p3312
g39
sVUin
p3313
I0
sVAppAccountFlag
p3314
I0
sVVerifyFlag
p3315
I0
sVProvince
p3316
V\u5b89\u5fbd
p3317
sVKeyWord
p3318
Vlwl
p3319
sVRemarkName
p3320
g39
sVPYInitial
p3321
VLW
p3322
sVChatRoomId
p3323
I0
sVIsOwner
p3324
I0
sVHideInputBarFlag
p3325
I0
sVEncryChatRoomId
p3326
g39
sVAttrStatus
p3327
I102439
sVSnsFlag
p3328
I49
sVMemberCount
p3329
I0
sVOwnerUin
p3330
I0
sVAlias
p3331
g39
sVSignature
p3332
g39
sVContactFlag
p3333
I1
sVNickName
p3334
V\u674e\u4f1f
p3335
sVRemarkPYQuanPin
p3336
g39
sVHeadImgUrl
p3337
V/cgi-bin/mmwebwx-bin/webwxgeticon?seq=661019531&username=@7f3e0f773d9cd852cb1a196faddfc02b&skey=@crypt_19753c23_05fa7a994bb1092bdd72a1191a0443aa
p3338
sVSex
p3339
I1
sVStarFriend
p3340
I0
sVStatues
p3341
I0
sa(dp3342
VUserName
p3343
V@226b9cfba367250606f6b7ed3f556ad0
p3344
sVCity
p3345
g39
sVDisplayName
p3346
g39
sVUniFriend
p3347
I0
sVMemberList
p3348
(lp3349
sVPYQuanPin
p3350
Vhudachui
p3351
sVRemarkPYInitial
p3352
g39
sVUin
p3353
I0
sVAppAccountFlag
p3354
I0
sVVerifyFlag
p3355
I0
sVProvince
p3356
VHaiphong
p3357
sVKeyWord
p3358
Vpol
p3359
sVRemarkName
p3360
g39
sVPYInitial
p3361
VHDC
p3362
sVChatRoomId
p3363
I0
sVIsOwner
p3364
I0
sVHideInputBarFlag
p3365
I0
sVEncryChatRoomId
p3366
g39
sVAttrStatus
p3367
I105571
sVSnsFlag
p3368
I49
sVMemberCount
p3369
I0
sVOwnerUin
p3370
I0
sVAlias
p3371
g39
sVSignature
p3372
V\u620d\u5ba2\u671b\u8fb9\u8272   \u601d\u5f52\u591a\u82e6\u989c
p3373
sVContactFlag
p3374
I1
sVNickName
p3375
V\u80e1\u5927\u9524
p3376
sVRemarkPYQuanPin
p3377
g39
sVHeadImgUrl
p3378
V/cgi-bin/mmwebwx-bin/webwxgeticon?seq=661005584&username=@226b9cfba367250606f6b7ed3f556ad0&skey=@crypt_19753c23_05fa7a994bb1092bdd72a1191a0443aa
p3379
sVSex
p3380
I1
sVStarFriend
p3381
I0
sVStatues
p3382
I0
sa(dp3383
VUserName
p3384
V@58e55ad33b08dc98b7510d4dd5da9889995161c1e6a05403b1c2f41847b03142
p3385
sVCity
p3386
V\u82cf\u5dde
p3387
sVDisplayName
p3388
g39
sVUniFriend
p3389
I0
sVMemberList
p3390
(lp3391
sVPYQuanPin
p3392
Vpibinhui
p3393
sVRemarkPYInitial
p3394
g39
sVUin
p3395
I0
sVAppAccountFlag
p3396
I0
sVVerifyFlag
p3397
I0
sVProvince
p3398
V\u6c5f\u82cf
p3399
sVKeyWord
p3400
g39
sVRemarkName
p3401
g39
sVPYInitial
p3402
VPIBINHUI
p3403
sVChatRoomId
p3404
I0
sVIsOwner
p3405
I0
sVHideInputBarFlag
p3406
I0
sVEncryChatRoomId
p3407
g39
sVAttrStatus
p3408
I239079
sVSnsFlag
p3409
I17
sVMemberCount
p3410
I0
sVOwnerUin
p3411
I0
sVAlias
p3412
Vpibinhui
p3413
sVSignature
p3414
g39
sVContactFlag
p3415
I1
sVNickName
p3416
Vpibinhui
p3417
sVRemarkPYQuanPin
p3418
g39
sVHeadImgUrl
p3419
V/cgi-bin/mmwebwx-bin/webwxgeticon?seq=677367076&username=@58e55ad33b08dc98b7510d4dd5da9889995161c1e6a05403b1c2f41847b03142&skey=@crypt_19753c23_05fa7a994bb1092bdd72a1191a0443aa
p3420
sVSex
p3421
I1
sVStarFriend
p3422
I0
sVStatues
p3423
I0
sa(dp3424
VUserName
p3425
V@d8bb671aeaf2e1f031703387cb14fce2
p3426
sVCity
p3427
V\u829c\u6e56
p3428
sVDisplayName
p3429
g39
sVUniFriend
p3430
I0
sVMemberList
p3431
(lp3432
sVPYQuanPin
p3433
VKxiansen
p3434
sVRemarkPYInitial
p3435
g39
sVUin
p3436
I0
sVAppAccountFlag
p3437
I0
sVVerifyFlag
p3438
I0
sVProvince
p3439
V\u5b89\u5fbd
p3440
sVKeyWord
p3441
Vkan
p3442
sVRemarkName
p3443
g39
sVPYInitial
p3444
VKXS
p3445
sVChatRoomId
p3446
I0
sVIsOwner
p3447
I0
sVHideInputBarFlag
p3448
I0
sVEncryChatRoomId
p3449
g39
sVAttrStatus
p3450
I68071
sVSnsFlag
p3451
I49
sVMemberCount
p3452
I0
sVOwnerUin
p3453
I0
sVAlias
p3454
g39
sVSignature
p3455
VI have a baby \uff5eyou cant stop me\uff5e
p3456
sVContactFlag
p3457
I65537
sVNickName
p3458
VK\u5148\u68ee
p3459
sVRemarkPYQuanPin
p3460
g39
sVHeadImgUrl
p3461
V/cgi-bin/mmwebwx-bin/webwxgeticon?seq=654840880&username=@d8bb671aeaf2e1f031703387cb14fce2&skey=@crypt_19753c23_05fa7a994bb1092bdd72a1191a0443aa
p3462
sVSex
p3463
I1
sVStarFriend
p3464
I0
sVStatues
p3465
I0
sa(dp3466
VUserName
p3467
V@b69c1dadd6ab899e6dee3b9c7f741f0b
p3468
sVCity
p3469
V\u5e38\u5fb7
p3470
sVDisplayName
p3471
g39
sVUniFriend
p3472
I0
sVMemberList
p3473
(lp3474
sVPYQuanPin
p3475
Vximi
p3476
sVRemarkPYInitial
p3477
g39
sVUin
p3478
I0
sVAppAccountFlag
p3479
I0
sVVerifyFlag
p3480
I0
sVProvince
p3481
V\u6e56\u5357
p3482
sVKeyWord
p3483
Vqxw
p3484
sVRemarkName
p3485
g39
sVPYInitial
p3486
VXM
p3487
sVChatRoomId
p3488
I0
sVIsOwner
p3489
I0
sVHideInputBarFlag
p3490
I0
sVEncryChatRoomId
p3491
g39
sVAttrStatus
p3492
I200743
sVSnsFlag
p3493
I17
sVMemberCount
p3494
I0
sVOwnerUin
p3495
I0
sVAlias
p3496
g39
sVSignature
p3497
VIt's ok!
p3498
sVContactFlag
p3499
I1
sVNickName
p3500
V\u897f\u7c73
p3501
sVRemarkPYQuanPin
p3502
g39
sVHeadImgUrl
p3503
V/cgi-bin/mmwebwx-bin/webwxgeticon?seq=642990730&username=@b69c1dadd6ab899e6dee3b9c7f741f0b&skey=@crypt_19753c23_05fa7a994bb1092bdd72a1191a0443aa
p3504
sVSex
p3505
I1
sVStarFriend
p3506
I0
sVStatues
p3507
I0
sa(dp3508
VUserName
p3509
V@2010b4f70701f5726bc33399dfabf01ddc321736565cc2c591e6bae5f926143d
p3510
sVCity
p3511
V\u5357\u4eac
p3512
sVDisplayName
p3513
g39
sVUniFriend
p3514
I0
sVMemberList
p3515
(lp3516
sVPYQuanPin
p3517
Vbaidu
p3518
sVRemarkPYInitial
p3519
g39
sVUin
p3520
I0
sVAppAccountFlag
p3521
I0
sVVerifyFlag
p3522
I0
sVProvince
p3523
V\u6c5f\u82cf
p3524
sVKeyWord
p3525
g39
sVRemarkName
p3526
g39
sVPYInitial
p3527
VBD
p3528
sVChatRoomId
p3529
I0
sVIsOwner
p3530
I0
sVHideInputBarFlag
p3531
I0
sVEncryChatRoomId
p3532
g39
sVAttrStatus
p3533
I103461
sVSnsFlag
p3534
I17
sVMemberCount
p3535
I0
sVOwnerUin
p3536
I0
sVAlias
p3537
Vyaoxnjust
p3538
sVSignature
p3539
g39
sVContactFlag
p3540
I1
sVNickName
p3541
V\u6446\u6e21
p3542
sVRemarkPYQuanPin
p3543
g39
sVHeadImgUrl
p3544
V/cgi-bin/mmwebwx-bin/webwxgeticon?seq=632642080&username=@2010b4f70701f5726bc33399dfabf01ddc321736565cc2c591e6bae5f926143d&skey=@crypt_19753c23_05fa7a994bb1092bdd72a1191a0443aa
p3545
sVSex
p3546
I1
sVStarFriend
p3547
I0
sVStatues
p3548
I0
sa(dp3549
VUserName
p3550
V@5b0ff8779f0cc12ea32385ab1f270f353bda45b92ab294cbb8e7ca15f3ae44d3
p3551
sVCity
p3552
V\u676d\u5dde
p3553
sVDisplayName
p3554
g39
sVUniFriend
p3555
I0
sVMemberList
p3556
(lp3557
sVPYQuanPin
p3558
Vchangyaowei
p3559
sVRemarkPYInitial
p3560
g39
sVUin
p3561
I0
sVAppAccountFlag
p3562
I0
sVVerifyFlag
p3563
I0
sVProvince
p3564
V\u6d59\u6c5f
p3565
sVKeyWord
p3566
Vcha
p3567
sVRemarkName
p3568
g39
sVPYInitial
p3569
VCYW
p3570
sVChatRoomId
p3571
I0
sVIsOwner
p3572
I0
sVHideInputBarFlag
p3573
I0
sVEncryChatRoomId
p3574
g39
sVAttrStatus
p3575
I16879719
sVSnsFlag
p3576
I17
sVMemberCount
p3577
I0
sVOwnerUin
p3578
I0
sVAlias
p3579
g39
sVSignature
p3580
V\u52ff\u6270\uff01
p3581
sVContactFlag
p3582
I1
sVNickName
p3583
V\u5e38\u8000\u4f1f
p3584
sVRemarkPYQuanPin
p3585
g39
sVHeadImgUrl
p3586
V/cgi-bin/mmwebwx-bin/webwxgeticon?seq=642995372&username=@5b0ff8779f0cc12ea32385ab1f270f353bda45b92ab294cbb8e7ca15f3ae44d3&skey=@crypt_19753c23_05fa7a994bb1092bdd72a1191a0443aa
p3587
sVSex
p3588
I1
sVStarFriend
p3589
I0
sVStatues
p3590
I0
sa(dp3591
VUserName
p3592
V@71cca9121cf05f16ee4741225b8451c3ee9992bf4d3d43d7111481530ded7d71
p3593
sVCity
p3594
g39
sVDisplayName
p3595
g39
sVUniFriend
p3596
I0
sVMemberList
p3597
(lp3598
sVPYQuanPin
p3599
Vtheone
p3600
sVRemarkPYInitial
p3601
VZXY
p3602
sVUin
p3603
I0
sVAppAccountFlag
p3604
I0
sVVerifyFlag
p3605
I0
sVProvince
p3606
g39
sVKeyWord
p3607
g39
sVRemarkName
p3608
V\u5f20\u65b0\u5b87
p3609
sVPYInitial
p3610
VTHEONE
p3611
sVChatRoomId
p3612
I0
sVIsOwner
p3613
I0
sVHideInputBarFlag
p3614
I0
sVEncryChatRoomId
p3615
g39
sVAttrStatus
p3616
I233639
sVSnsFlag
p3617
I17
sVMemberCount
p3618
I0
sVOwnerUin
p3619
I0
sVAlias
p3620
VXinyu-Nokia
p3621
sVSignature
p3622
V1+1&gt;2
p3623
sVContactFlag
p3624
I1
sVNickName
p3625
Vthe one
p3626
sVRemarkPYQuanPin
p3627
Vzhangxinyu
p3628
sVHeadImgUrl
p3629
V/cgi-bin/mmwebwx-bin/webwxgeticon?seq=660987634&username=@71cca9121cf05f16ee4741225b8451c3ee9992bf4d3d43d7111481530ded7d71&skey=@crypt_19753c23_05fa7a994bb1092bdd72a1191a0443aa
p3630
sVSex
p3631
I1
sVStarFriend
p3632
I0
sVStatues
p3633
I0
sa(dp3634
VUserName
p3635
V@0546eef214ed5152cd69aa0c1f7131ed
p3636
sVCity
p3637
V\u829c\u6e56
p3638
sVDisplayName
p3639
g39
sVUniFriend
p3640
I0
sVMemberList
p3641
(lp3642
sVPYQuanPin
p3643
Vecho
p3644
sVRemarkPYInitial
p3645
g39
sVUin
p3646
I0
sVAppAccountFlag
p3647
I0
sVVerifyFlag
p3648
I0
sVProvince
p3649
V\u5b89\u5fbd
p3650
sVKeyWord
p3651
VECh
p3652
sVRemarkName
p3653
g39
sVPYInitial
p3654
VECHO
p3655
sVChatRoomId
p3656
I0
sVIsOwner
p3657
I0
sVHideInputBarFlag
p3658
I0
sVEncryChatRoomId
p3659
g39
sVAttrStatus
p3660
I4296743
sVSnsFlag
p3661
I17
sVMemberCount
p3662
I0
sVOwnerUin
p3663
I0
sVAlias
p3664
g39
sVSignature
p3665
g39
sVContactFlag
p3666
I1
sVNickName
p3667
Vecho
p3668
sVRemarkPYQuanPin
p3669
g39
sVHeadImgUrl
p3670
V/cgi-bin/mmwebwx-bin/webwxgeticon?seq=677369631&username=@0546eef214ed5152cd69aa0c1f7131ed&skey=@crypt_19753c23_05fa7a994bb1092bdd72a1191a0443aa
p3671
sVSex
p3672
I2
sVStarFriend
p3673
I0
sVStatues
p3674
I0
sa(dp3675
VUserName
p3676
V@7dbc8aef34c04da022cc83f208f67853
p3677
sVCity
p3678
V\u6e1d\u4e2d
p3679
sVDisplayName
p3680
g39
sVUniFriend
p3681
I0
sVMemberList
p3682
(lp3683
sVPYQuanPin
p3684
VAri
p3685
sVRemarkPYInitial
p3686
g39
sVUin
p3687
I0
sVAppAccountFlag
p3688
I0
sVVerifyFlag
p3689
I0
sVProvince
p3690
V\u91cd\u5e86
p3691
sVKeyWord
p3692
Vari
p3693
sVRemarkName
p3694
g39
sVPYInitial
p3695
VARI
p3696
sVChatRoomId
p3697
I0
sVIsOwner
p3698
I0
sVHideInputBarFlag
p3699
I0
sVEncryChatRoomId
p3700
g39
sVAttrStatus
p3701
I100415
sVSnsFlag
p3702
I49
sVMemberCount
p3703
I0
sVOwnerUin
p3704
I0
sVAlias
p3705
g39
sVSignature
p3706
g39
sVContactFlag
p3707
I1
sVNickName
p3708
VAri
p3709
sVRemarkPYQuanPin
p3710
g39
sVHeadImgUrl
p3711
V/cgi-bin/mmwebwx-bin/webwxgeticon?seq=819822&username=@7dbc8aef34c04da022cc83f208f67853&skey=@crypt_19753c23_05fa7a994bb1092bdd72a1191a0443aa
p3712
sVSex
p3713
I2
sVStarFriend
p3714
I0
sVStatues
p3715
I0
sa(dp3716
VUserName
p3717
V@42194d448de4d9da1aab89688fd73010fe37752c53d70775ec0db028439754ec
p3718
sVCity
p3719
V\u73e0\u6d77
p3720
sVDisplayName
p3721
g39
sVUniFriend
p3722
I0
sVMemberList
p3723
(lp3724
sVPYQuanPin
p3725
Vliuhope
p3726
sVRemarkPYInitial
p3727
g39
sVUin
p3728
I0
sVAppAccountFlag
p3729
I0
sVVerifyFlag
p3730
I0
sVProvince
p3731
V\u5e7f\u4e1c
p3732
sVKeyWord
p3733
g39
sVRemarkName
p3734
g39
sVPYInitial
p3735
VLHOPE
p3736
sVChatRoomId
p3737
I0
sVIsOwner
p3738
I0
sVHideInputBarFlag
p3739
I0
sVEncryChatRoomId
p3740
g39
sVAttrStatus
p3741
I102591
sVSnsFlag
p3742
I17
sVMemberCount
p3743
I0
sVOwnerUin
p3744
I0
sVAlias
p3745
Vpanpannihaogaoxiao
p3746
sVSignature
p3747
V\u5fc3\u6001\u51b3\u5b9a\u662f\u5426\u5f00\u5fc3
p3748
sVContactFlag
p3749
I1
sVNickName
p3750
V\u5218hope
p3751
sVRemarkPYQuanPin
p3752
g39
sVHeadImgUrl
p3753
V/cgi-bin/mmwebwx-bin/webwxgeticon?seq=661000828&username=@42194d448de4d9da1aab89688fd73010fe37752c53d70775ec0db028439754ec&skey=@crypt_19753c23_05fa7a994bb1092bdd72a1191a0443aa
p3754
sVSex
p3755
I1
sVStarFriend
p3756
I0
sVStatues
p3757
I0
sa(dp3758
VUserName
p3759
V@ef8007326184ac777831caa159225f2a
p3760
sVCity
p3761
V\u9ec4\u5c71
p3762
sVDisplayName
p3763
g39
sVUniFriend
p3764
I0
sVMemberList
p3765
(lp3766
sVPYQuanPin
p3767
VBoyceHong
p3768
sVRemarkPYInitial
p3769
g39
sVUin
p3770
I0
sVAppAccountFlag
p3771
I0
sVVerifyFlag
p3772
I0
sVProvince
p3773
V\u5b89\u5fbd
p3774
sVKeyWord
p3775
Vhon
p3776
sVRemarkName
p3777
g39
sVPYInitial
p3778
VBOYCEHONG
p3779
sVChatRoomId
p3780
I0
sVIsOwner
p3781
I0
sVHideInputBarFlag
p3782
I0
sVEncryChatRoomId
p3783
g39
sVAttrStatus
p3784
I69733
sVSnsFlag
p3785
I49
sVMemberCount
p3786
I0
sVOwnerUin
p3787
I0
sVAlias
p3788
VG-Honda
p3789
sVSignature
p3790
V\u3002
p3791
sVContactFlag
p3792
I1
sVNickName
p3793
VBoyceHong
p3794
sVRemarkPYQuanPin
p3795
g39
sVHeadImgUrl
p3796
V/cgi-bin/mmwebwx-bin/webwxgeticon?seq=640321921&username=@ef8007326184ac777831caa159225f2a&skey=@crypt_19753c23_05fa7a994bb1092bdd72a1191a0443aa
p3797
sVSex
p3798
I1
sVStarFriend
p3799
I0
sVStatues
p3800
I0
sa(dp3801
VUserName
p3802
V@6e19d586fac457adde2b0ca0976a1ac1
p3803
sVCity
p3804
V\u5357\u4eac
p3805
sVDisplayName
p3806
g39
sVUniFriend
p3807
I0
sVMemberList
p3808
(lp3809
sVPYQuanPin
p3810
VMc
p3811
sVRemarkPYInitial
p3812
g39
sVUin
p3813
I0
sVAppAccountFlag
p3814
I0
sVVerifyFlag
p3815
I0
sVProvince
p3816
V\u6c5f\u82cf
p3817
sVKeyWord
p3818
Vmin
p3819
sVRemarkName
p3820
g39
sVPYInitial
p3821
VMC
p3822
sVChatRoomId
p3823
I0
sVIsOwner
p3824
I0
sVHideInputBarFlag
p3825
I0
sVEncryChatRoomId
p3826
g39
sVAttrStatus
p3827
I69819
sVSnsFlag
p3828
I49
sVMemberCount
p3829
I0
sVOwnerUin
p3830
I0
sVAlias
p3831
g39
sVSignature
p3832
V\u5e78\u798f\u5c0f\u5c0f
p3833
sVContactFlag
p3834
I1
sVNickName
p3835
VMc
p3836
sVRemarkPYQuanPin
p3837
g39
sVHeadImgUrl
p3838
V/cgi-bin/mmwebwx-bin/webwxgeticon?seq=661019065&username=@6e19d586fac457adde2b0ca0976a1ac1&skey=@crypt_19753c23_05fa7a994bb1092bdd72a1191a0443aa
p3839
sVSex
p3840
I1
sVStarFriend
p3841
I0
sVStatues
p3842
I0
sa(dp3843
VUserName
p3844
V@82e386aae803dc2be7432f6c91a534ff
p3845
sVCity
p3846
V\u829c\u6e56
p3847
sVDisplayName
p3848
g39
sVUniFriend
p3849
I0
sVMemberList
p3850
(lp3851
sVPYQuanPin
p3852
Vliangliangsheng
p3853
sVRemarkPYInitial
p3854
g39
sVUin
p3855
I0
sVAppAccountFlag
p3856
I0
sVVerifyFlag
p3857
I0
sVProvince
p3858
V\u5b89\u5fbd
p3859
sVKeyWord
p3860
Vlx1
p3861
sVRemarkName
p3862
g39
sVPYInitial
p3863
VLLS
p3864
sVChatRoomId
p3865
I0
sVIsOwner
p3866
I0
sVHideInputBarFlag
p3867
I0
sVEncryChatRoomId
p3868
g39
sVAttrStatus
p3869
I98343
sVSnsFlag
p3870
I17
sVMemberCount
p3871
I0
sVOwnerUin
p3872
I0
sVAlias
p3873
Vls417743441
p3874
sVSignature
p3875
g39
sVContactFlag
p3876
I1
sVNickName
p3877
V\u6881\u51c9\u751f
p3878
sVRemarkPYQuanPin
p3879
g39
sVHeadImgUrl
p3880
V/cgi-bin/mmwebwx-bin/webwxgeticon?seq=661022462&username=@82e386aae803dc2be7432f6c91a534ff&skey=@crypt_19753c23_05fa7a994bb1092bdd72a1191a0443aa
p3881
sVSex
p3882
I1
sVStarFriend
p3883
I0
sVStatues
p3884
I0
sa(dp3885
VUserName
p3886
V@a741384d1214c35b76b9ecd1faddb94bba65cefa97910ad5d87f9eb049dc9f88
p3887
sVCity
p3888
V\u6df1\u5733
p3889
sVDisplayName
p3890
g39
sVUniFriend
p3891
I0
sVMemberList
p3892
(lp3893
sVPYQuanPin
p3894
VPedroa
p3895
sVRemarkPYInitial
p3896
g39
sVUin
p3897
I0
sVAppAccountFlag
p3898
I0
sVVerifyFlag
p3899
I0
sVProvince
p3900
V\u5e7f\u4e1c
p3901
sVKeyWord
p3902
g39
sVRemarkName
p3903
g39
sVPYInitial
p3904
VPEDROA
p3905
sVChatRoomId
p3906
I0
sVIsOwner
p3907
I0
sVHideInputBarFlag
p3908
I0
sVEncryChatRoomId
p3909
g39
sVAttrStatus
p3910
I132197
sVSnsFlag
p3911
I17
sVMemberCount
p3912
I0
sVOwnerUin
p3913
I0
sVAlias
p3914
VUEFI-BIOS
p3915
sVSignature
p3916
VJust for fun
p3917
sVContactFlag
p3918
I1
sVNickName
p3919
VPedroa
p3920
sVRemarkPYQuanPin
p3921
g39
sVHeadImgUrl
p3922
V/cgi-bin/mmwebwx-bin/webwxgeticon?seq=621801467&username=@a741384d1214c35b76b9ecd1faddb94bba65cefa97910ad5d87f9eb049dc9f88&skey=@crypt_19753c23_05fa7a994bb1092bdd72a1191a0443aa
p3923
sVSex
p3924
I1
sVStarFriend
p3925
I0
sVStatues
p3926
I0
sa(dp3927
VUserName
p3928
V@9e1cb98135848652cd021782f31fd094
p3929
sVCity
p3930
V\u8679\u53e3
p3931
sVDisplayName
p3932
g39
sVUniFriend
p3933
I0
sVMemberList
p3934
(lp3935
sVPYQuanPin
p3936
Vaaaxiongyuehao
p3937
sVRemarkPYInitial
p3938
g39
sVUin
p3939
I0
sVAppAccountFlag
p3940
I0
sVVerifyFlag
p3941
I0
sVProvince
p3942
V\u4e0a\u6d77
p3943
sVKeyWord
p3944
Vqiu
p3945
sVRemarkName
p3946
g39
sVPYInitial
p3947
VAAAXYH
p3948
sVChatRoomId
p3949
I0
sVIsOwner
p3950
I0
sVHideInputBarFlag
p3951
I0
sVEncryChatRoomId
p3952
g39
sVAttrStatus
p3953
I37847527
sVSnsFlag
p3954
I49
sVMemberCount
p3955
I0
sVOwnerUin
p3956
I0
sVAlias
p3957
g39
sVSignature
p3958
V\u94c0
p3959
sVContactFlag
p3960
I1
sVNickName
p3961
Vaaa\u718a\u5cb3\u660a
p3962
sVRemarkPYQuanPin
p3963
g39
sVHeadImgUrl
p3964
V/cgi-bin/mmwebwx-bin/webwxgeticon?seq=654842532&username=@9e1cb98135848652cd021782f31fd094&skey=@crypt_19753c23_05fa7a994bb1092bdd72a1191a0443aa
p3965
sVSex
p3966
I1
sVStarFriend
p3967
I0
sVStatues
p3968
I0
sa(dp3969
VUserName
p3970
V@1451e7efda5da7959efdc8dacf86cc14
p3971
sVCity
p3972
V\u5357\u4eac
p3973
sVDisplayName
p3974
g39
sVUniFriend
p3975
I0
sVMemberList
p3976
(lp3977
sVPYQuanPin
p3978
Vmeow
p3979
sVRemarkPYInitial
p3980
g39
sVUin
p3981
I0
sVAppAccountFlag
p3982
I0
sVVerifyFlag
p3983
I0
sVProvince
p3984
V\u6c5f\u82cf
p3985
sVKeyWord
p3986
Vzho
p3987
sVRemarkName
p3988
g39
sVPYInitial
p3989
VMEOW
p3990
sVChatRoomId
p3991
I0
sVIsOwner
p3992
I0
sVHideInputBarFlag
p3993
I0
sVEncryChatRoomId
p3994
g39
sVAttrStatus
p3995
I104807
sVSnsFlag
p3996
I49
sVMemberCount
p3997
I0
sVOwnerUin
p3998
I0
sVAlias
p3999
g39
sVSignature
p4000
g39
sVContactFlag
p4001
I1
sVNickName
p4002
Vmeow
p4003
sVRemarkPYQuanPin
p4004
g39
sVHeadImgUrl
p4005
V/cgi-bin/mmwebwx-bin/webwxgeticon?seq=632090013&username=@1451e7efda5da7959efdc8dacf86cc14&skey=@crypt_19753c23_05fa7a994bb1092bdd72a1191a0443aa
p4006
sVSex
p4007
I1
sVStarFriend
p4008
I0
sVStatues
p4009
I0
sa(dp4010
VUserName
p4011
V@3e0d35576f2618359e39344b668a149964665b88aa4bd37b1764e2c3ed74b762
p4012
sVCity
p4013
g39
sVDisplayName
p4014
g39
sVUniFriend
p4015
I0
sVMemberList
p4016
(lp4017
sVPYQuanPin
p4018
Vguanguan
p4019
sVRemarkPYInitial
p4020
VGLS
p4021
sVUin
p4022
I0
sVAppAccountFlag
p4023
I0
sVVerifyFlag
p4024
I0
sVProvince
p4025
g39
sVKeyWord
p4026
g39
sVRemarkName
p4027
V\u5173\u8001\u5e08
p4028
sVPYInitial
p4029
VGG
p4030
sVChatRoomId
p4031
I0
sVIsOwner
p4032
I0
sVHideInputBarFlag
p4033
I0
sVEncryChatRoomId
p4034
g39
sVAttrStatus
p4035
I4197
sVSnsFlag
p4036
I17
sVMemberCount
p4037
I0
sVOwnerUin
p4038
I0
sVAlias
p4039
Vgjq338
p4040
sVSignature
p4041
g39
sVContactFlag
p4042
I1
sVNickName
p4043
V\u5173\u5173
p4044
sVRemarkPYQuanPin
p4045
Vguanlaoshi
p4046
sVHeadImgUrl
p4047
V/cgi-bin/mmwebwx-bin/webwxgeticon?seq=660995197&username=@3e0d35576f2618359e39344b668a149964665b88aa4bd37b1764e2c3ed74b762&skey=@crypt_19753c23_05fa7a994bb1092bdd72a1191a0443aa
p4048
sVSex
p4049
I0
sVStarFriend
p4050
I0
sVStatues
p4051
I0
sa(dp4052
VUserName
p4053
V@dcb263d7705a6db5d053661018ca22f521f6750ce0588adf6d76040389280d37
p4054
sVCity
p4055
V\u829c\u6e56
p4056
sVDisplayName
p4057
g39
sVUniFriend
p4058
I0
sVMemberList
p4059
(lp4060
sVPYQuanPin
p4061
Vhuadong
p4062
sVRemarkPYInitial
p4063
g39
sVUin
p4064
I0
sVAppAccountFlag
p4065
I0
sVVerifyFlag
p4066
I0
sVProvince
p4067
V\u5b89\u5fbd
p4068
sVKeyWord
p4069
g39
sVRemarkName
p4070
g39
sVPYInitial
p4071
VHD
p4072
sVChatRoomId
p4073
I0
sVIsOwner
p4074
I0
sVHideInputBarFlag
p4075
I0
sVEncryChatRoomId
p4076
g39
sVAttrStatus
p4077
I102437
sVSnsFlag
p4078
I49
sVMemberCount
p4079
I0
sVOwnerUin
p4080
I0
sVAlias
p4081
Vweitang-88
p4082
sVSignature
p4083
V365\u5929\u5012\u8ba1\u65f6
p4084
sVContactFlag
p4085
I1
sVNickName
p4086
V\u534e\u4e1c
p4087
sVRemarkPYQuanPin
p4088
g39
sVHeadImgUrl
p4089
V/cgi-bin/mmwebwx-bin/webwxgeticon?seq=660994312&username=@dcb263d7705a6db5d053661018ca22f521f6750ce0588adf6d76040389280d37&skey=@crypt_19753c23_05fa7a994bb1092bdd72a1191a0443aa
p4090
sVSex
p4091
I1
sVStarFriend
p4092
I0
sVStatues
p4093
I0
sa(dp4094
VUserName
p4095
V@2282acb0aa0519fa45af9f0552583c31
p4096
sVCity
p4097
V\u5357\u4eac
p4098
sVDisplayName
p4099
g39
sVUniFriend
p4100
I0
sVMemberList
p4101
(lp4102
sVPYQuanPin
p4103
Vmi
p4104
sVRemarkPYInitial
p4105
g39
sVUin
p4106
I0
sVAppAccountFlag
p4107
I0
sVVerifyFlag
p4108
I0
sVProvince
p4109
V\u6c5f\u82cf
p4110
sVKeyWord
p4111
Vmi9
p4112
sVRemarkName
p4113
g39
sVPYInitial
p4114
VM
p4115
sVChatRoomId
p4116
I0
sVIsOwner
p4117
I0
sVHideInputBarFlag
p4118
I0
sVEncryChatRoomId
p4119
g39
sVAttrStatus
p4120
I99367
sVSnsFlag
p4121
I17
sVMemberCount
p4122
I0
sVOwnerUin
p4123
I0
sVAlias
p4124
g39
sVSignature
p4125
VMeow~
p4126
sVContactFlag
p4127
I1
sVNickName
p4128
V\u871c
p4129
sVRemarkPYQuanPin
p4130
g39
sVHeadImgUrl
p4131
V/cgi-bin/mmwebwx-bin/webwxgeticon?seq=677370999&username=@2282acb0aa0519fa45af9f0552583c31&skey=@crypt_19753c23_05fa7a994bb1092bdd72a1191a0443aa
p4132
sVSex
p4133
I2
sVStarFriend
p4134
I0
sVStatues
p4135
I0
sa(dp4136
VUserName
p4137
V@284bab1e92743f0f3ac14e07833d334f667372c38372a1609e58b43e8755a6a3
p4138
sVCity
p4139
V\u829c\u6e56
p4140
sVDisplayName
p4141
g39
sVUniFriend
p4142
I0
sVMemberList
p4143
(lp4144
sVPYQuanPin
p4145
Vwulitou
p4146
sVRemarkPYInitial
p4147
g39
sVUin
p4148
I0
sVAppAccountFlag
p4149
I0
sVVerifyFlag
p4150
I0
sVProvince
p4151
V\u5b89\u5fbd
p4152
sVKeyWord
p4153
g39
sVRemarkName
p4154
g39
sVPYInitial
p4155
VWLT
p4156
sVChatRoomId
p4157
I0
sVIsOwner
p4158
I0
sVHideInputBarFlag
p4159
I0
sVEncryChatRoomId
p4160
g39
sVAttrStatus
p4161
I102439
sVSnsFlag
p4162
I49
sVMemberCount
p4163
I0
sVOwnerUin
p4164
I0
sVAlias
p4165
Vsx984627705
p4166
sVSignature
p4167
V\u6211\u81ea\u5df1\u4e5f\u4e0d\u77e5\u9053\u6211\u4e3a\u4ec0\u4e48\u957f\u5f97\u90a3\u4e48\u5c0f
p4168
sVContactFlag
p4169
I1
sVNickName
p4170
V\u65e0\u5398\u5934
p4171
sVRemarkPYQuanPin
p4172
g39
sVHeadImgUrl
p4173
V/cgi-bin/mmwebwx-bin/webwxgeticon?seq=677371454&username=@284bab1e92743f0f3ac14e07833d334f667372c38372a1609e58b43e8755a6a3&skey=@crypt_19753c23_05fa7a994bb1092bdd72a1191a0443aa
p4174
sVSex
p4175
I1
sVStarFriend
p4176
I0
sVStatues
p4177
I0
sa(dp4178
VUserName
p4179
V@2e078ca1dd514ec3d4f23f44b84cf1d3
p4180
sVCity
p4181
V\u957f\u6c99
p4182
sVDisplayName
p4183
g39
sVUniFriend
p4184
I0
sVMemberList
p4185
(lp4186
sVPYQuanPin
p4187
Vbaochehuifanglihua
p4188
sVRemarkPYInitial
p4189
g39
sVUin
p4190
I0
sVAppAccountFlag
p4191
I0
sVVerifyFlag
p4192
I0
sVProvince
p4193
V\u6e56\u5357
p4194
sVKeyWord
p4195
Vflh
p4196
sVRemarkName
p4197
g39
sVPYInitial
p4198
VBCHFLH
p4199
sVChatRoomId
p4200
I0
sVIsOwner
p4201
I0
sVHideInputBarFlag
p4202
I0
sVEncryChatRoomId
p4203
g39
sVAttrStatus
p4204
I235623
sVSnsFlag
p4205
I49
sVMemberCount
p4206
I0
sVOwnerUin
p4207
I0
sVAlias
p4208
Vhua_116
p4209
sVSignature
p4210
V\u6c34\u9540\u819c\u6d17\u8f66\uff0c\u629b\u5149\u9540\u6676\uff0c\u8f66\u8eab\u6539\u8272\uff0c\u9690\u5f62\u8f66\u8863\uff0c\u94a3\u91d1\u55b7\u6f06\uff0c\u8f66\u9669\u8fdd\u7ae0
p4211
sVContactFlag
p4212
I5
sVNickName
p4213
V\u5b9d\u8f66\u4f1a\u65b9\u529b\u534e
p4214
sVRemarkPYQuanPin
p4215
g39
sVHeadImgUrl
p4216
V/cgi-bin/mmwebwx-bin/webwxgeticon?seq=661012353&username=@2e078ca1dd514ec3d4f23f44b84cf1d3&skey=@crypt_19753c23_05fa7a994bb1092bdd72a1191a0443aa
p4217
sVSex
p4218
I1
sVStarFriend
p4219
I0
sVStatues
p4220
I0
sa(dp4221
VUserName
p4222
V@38ab758da6b1ff6b54d5a3e15fe6fc491273411520dbf7ab70e384284c027916
p4223
sVCity
p4224
V\u4e1c\u839e
p4225
sVDisplayName
p4226
g39
sVUniFriend
p4227
I0
sVMemberList
p4228
(lp4229
sVPYQuanPin
p4230
Vming
p4231
sVRemarkPYInitial
p4232
g39
sVUin
p4233
I0
sVAppAccountFlag
p4234
I0
sVVerifyFlag
p4235
I0
sVProvince
p4236
V\u5e7f\u4e1c
p4237
sVKeyWord
p4238
g39
sVRemarkName
p4239
g39
sVPYInitial
p4240
g4115
sVChatRoomId
p4241
I0
sVIsOwner
p4242
I0
sVHideInputBarFlag
p4243
I0
sVEncryChatRoomId
p4244
g39
sVAttrStatus
p4245
I4133
sVSnsFlag
p4246
I1
sVMemberCount
p4247
I0
sVOwnerUin
p4248
I0
sVAlias
p4249
g39
sVSignature
p4250
g39
sVContactFlag
p4251
I1
sVNickName
p4252
V\u660e
p4253
sVRemarkPYQuanPin
p4254
g39
sVHeadImgUrl
p4255
V/cgi-bin/mmwebwx-bin/webwxgeticon?seq=677372262&username=@38ab758da6b1ff6b54d5a3e15fe6fc491273411520dbf7ab70e384284c027916&skey=@crypt_19753c23_05fa7a994bb1092bdd72a1191a0443aa
p4256
sVSex
p4257
I1
sVStarFriend
p4258
I0
sVStatues
p4259
I0
sa(dp4260
VUserName
p4261
V@b35a03843b68e0e1b40efaae9024c9723a27badedfbe17fca97efff8f2523589
p4262
sVCity
p4263
VLondon
p4264
sVDisplayName
p4265
g39
sVUniFriend
p4266
I0
sVMemberList
p4267
(lp4268
sVPYQuanPin
p4269
VXue
p4270
sVRemarkPYInitial
p4271
g39
sVUin
p4272
I0
sVAppAccountFlag
p4273
I0
sVVerifyFlag
p4274
I0
sVProvince
p4275
VEngland
p4276
sVKeyWord
p4277
g39
sVRemarkName
p4278
g39
sVPYInitial
p4279
VXUE
p4280
sVChatRoomId
p4281
I0
sVIsOwner
p4282
I0
sVHideInputBarFlag
p4283
I0
sVEncryChatRoomId
p4284
g39
sVAttrStatus
p4285
I99175
sVSnsFlag
p4286
I49
sVMemberCount
p4287
I0
sVOwnerUin
p4288
I0
sVAlias
p4289
Vsupernovaflashing
p4290
sVSignature
p4291
g39
sVContactFlag
p4292
I1
sVNickName
p4293
VXue
p4294
sVRemarkPYQuanPin
p4295
g39
sVHeadImgUrl
p4296
V/cgi-bin/mmwebwx-bin/webwxgeticon?seq=677372279&username=@b35a03843b68e0e1b40efaae9024c9723a27badedfbe17fca97efff8f2523589&skey=@crypt_19753c23_05fa7a994bb1092bdd72a1191a0443aa
p4297
sVSex
p4298
I2
sVStarFriend
p4299
I0
sVStatues
p4300
I0
sa(dp4301
VUserName
p4302
V@16e050ee8cebe8198c428c69de1fa290
p4303
sVCity
p4304
V\u6d77\u6dc0
p4305
sVDisplayName
p4306
g39
sVUniFriend
p4307
I0
sVMemberList
p4308
(lp4309
sVPYQuanPin
p4310
Vkudouxiaohei
p4311
sVRemarkPYInitial
p4312
g39
sVUin
p4313
I0
sVAppAccountFlag
p4314
I0
sVVerifyFlag
p4315
I0
sVProvince
p4316
V\u5317\u4eac
p4317
sVKeyWord
p4318
Vwos
p4319
sVRemarkName
p4320
g39
sVPYInitial
p4321
VKDXH
p4322
sVChatRoomId
p4323
I0
sVIsOwner
p4324
I0
sVHideInputBarFlag
p4325
I0
sVEncryChatRoomId
p4326
g39
sVAttrStatus
p4327
I98687
sVSnsFlag
p4328
I49
sVMemberCount
p4329
I0
sVOwnerUin
p4330
I0
sVAlias
p4331
g39
sVSignature
p4332
g39
sVContactFlag
p4333
I1
sVNickName
p4334
V\u88e4\u515c*\u5c0f\u9ed1
p4335
sVRemarkPYQuanPin
p4336
g39
sVHeadImgUrl
p4337
V/cgi-bin/mmwebwx-bin/webwxgeticon?seq=677372626&username=@16e050ee8cebe8198c428c69de1fa290&skey=@crypt_19753c23_05fa7a994bb1092bdd72a1191a0443aa
p4338
sVSex
p4339
I2
sVStarFriend
p4340
I0
sVStatues
p4341
I0
sa(dp4342
VUserName
p4343
V@3d1c028bac35fad787ecd1c381c75802
p4344
sVCity
p4345
V\u676d\u5dde
p4346
sVDisplayName
p4347
g39
sVUniFriend
p4348
I0
sVMemberList
p4349
(lp4350
sVPYQuanPin
p4351
Valleasycx
p4352
sVRemarkPYInitial
p4353
g39
sVUin
p4354
I0
sVAppAccountFlag
p4355
I0
sVVerifyFlag
p4356
I0
sVProvince
p4357
V\u6d59\u6c5f
p4358
sVKeyWord
p4359
Vall
p4360
sVRemarkName
p4361
g39
sVPYInitial
p4362
VALLEASYCX
p4363
sVChatRoomId
p4364
I0
sVIsOwner
p4365
I0
sVHideInputBarFlag
p4366
I0
sVEncryChatRoomId
p4367
g39
sVAttrStatus
p4368
I105571
sVSnsFlag
p4369
I49
sVMemberCount
p4370
I0
sVOwnerUin
p4371
I0
sVAlias
p4372
g39
sVSignature
p4373
g39
sVContactFlag
p4374
I1
sVNickName
p4375
Valleasycx
p4376
sVRemarkPYQuanPin
p4377
g39
sVHeadImgUrl
p4378
V/cgi-bin/mmwebwx-bin/webwxgeticon?seq=632639845&username=@3d1c028bac35fad787ecd1c381c75802&skey=@crypt_19753c23_05fa7a994bb1092bdd72a1191a0443aa
p4379
sVSex
p4380
I1
sVStarFriend
p4381
I0
sVStatues
p4382
I0
sa(dp4383
VUserName
p4384
V@31591abc4e9d5ee8909d2c1cf2161018
p4385
sVCity
p4386
V\u6b66\u6c49
p4387
sVDisplayName
p4388
g39
sVUniFriend
p4389
I0
sVMemberList
p4390
(lp4391
sVPYQuanPin
p4392
Vyeyongkui
p4393
sVRemarkPYInitial
p4394
VYYKWHGK
p4395
sVUin
p4396
I0
sVAppAccountFlag
p4397
I0
sVVerifyFlag
p4398
I0
sVProvince
p4399
V\u6e56\u5317
p4400
sVKeyWord
p4401
Vjia
p4402
sVRemarkName
p4403
V\u53f6\u6c38\u9b41\u6b66\u6c49\u679c\u58f3
p4404
sVPYInitial
p4405
VYYK
p4406
sVChatRoomId
p4407
I0
sVIsOwner
p4408
I0
sVHideInputBarFlag
p4409
I0
sVEncryChatRoomId
p4410
g39
sVAttrStatus
p4411
I233573
sVSnsFlag
p4412
I17
sVMemberCount
p4413
I0
sVOwnerUin
p4414
I0
sVAlias
p4415
Vyyk18616975675
p4416
sVSignature
p4417
V:::W05:::       \u6b66\u6c49\u53f7\u780118995520324
p4418
sVContactFlag
p4419
I65793
sVNickName
p4420
V\u53f6\u6c38\u9b41
p4421
sVRemarkPYQuanPin
p4422
Vyeyongkuiwuhanguoke
p4423
sVHeadImgUrl
p4424
V/cgi-bin/mmwebwx-bin/webwxgeticon?seq=677373034&username=@31591abc4e9d5ee8909d2c1cf2161018&skey=@crypt_19753c23_05fa7a994bb1092bdd72a1191a0443aa
p4425
sVSex
p4426
I1
sVStarFriend
p4427
I0
sVStatues
p4428
I0
sa(dp4429
VUserName
p4430
V@7383707c151844f18f881a89435b3b39b527ab8f1689dcfdacc79ac4aac2d10f
p4431
sVCity
p4432
V\u4e0a\u9976
p4433
sVDisplayName
p4434
g39
sVUniFriend
p4435
I0
sVMemberList
p4436
(lp4437
sVPYQuanPin
p4438
Verickaixindefeng
p4439
sVRemarkPYInitial
p4440
g39
sVUin
p4441
I0
sVAppAccountFlag
p4442
I0
sVVerifyFlag
p4443
I0
sVProvince
p4444
V\u6c5f\u897f
p4445
sVKeyWord
p4446
g39
sVRemarkName
p4447
g39
sVPYInitial
p4448
VERICKXDF
p4449
sVChatRoomId
p4450
I0
sVIsOwner
p4451
I0
sVHideInputBarFlag
p4452
I0
sVEncryChatRoomId
p4453
g39
sVAttrStatus
p4454
I33656933
sVSnsFlag
p4455
I17
sVMemberCount
p4456
I0
sVOwnerUin
p4457
I0
sVAlias
p4458
g39
sVSignature
p4459
g39
sVContactFlag
p4460
I3
sVNickName
p4461
Veric \u5f00\u5fc3\u7684\u98ce
p4462
sVRemarkPYQuanPin
p4463
g39
sVHeadImgUrl
p4464
V/cgi-bin/mmwebwx-bin/webwxgeticon?seq=677373359&username=@7383707c151844f18f881a89435b3b39b527ab8f1689dcfdacc79ac4aac2d10f&skey=@crypt_19753c23_05fa7a994bb1092bdd72a1191a0443aa
p4465
sVSex
p4466
I1
sVStarFriend
p4467
I0
sVStatues
p4468
I0
sa(dp4469
VUserName
p4470
V@d28444b74b4285f71b1b4688a3f7191f22825dd29073e6ac1db5e789f1b64961
p4471
sVCity
p4472
VMelbourne
p4473
sVDisplayName
p4474
g39
sVUniFriend
p4475
I0
sVMemberList
p4476
(lp4477
sVPYQuanPin
p4478
VSuperBTK
p4479
sVRemarkPYInitial
p4480
g39
sVUin
p4481
I0
sVAppAccountFlag
p4482
I0
sVVerifyFlag
p4483
I0
sVProvince
p4484
VVictoria
p4485
sVKeyWord
p4486
g39
sVRemarkName
p4487
g39
sVPYInitial
p4488
VSUPERBTK
p4489
sVChatRoomId
p4490
I0
sVIsOwner
p4491
I0
sVHideInputBarFlag
p4492
I0
sVEncryChatRoomId
p4493
g39
sVAttrStatus
p4494
I104485
sVSnsFlag
p4495
I17
sVMemberCount
p4496
I0
sVOwnerUin
p4497
I0
sVAlias
p4498
VSuperBTK
p4499
sVSignature
p4500
V\u4e00\u53ea\u9752\u8272\u624b \u642d\u4e0a\u4f60\u80a9\u5934
p4501
sVContactFlag
p4502
I1
sVNickName
p4503
VSuperBTK
p4504
sVRemarkPYQuanPin
p4505
g39
sVHeadImgUrl
p4506
V/cgi-bin/mmwebwx-bin/webwxgeticon?seq=677374148&username=@d28444b74b4285f71b1b4688a3f7191f22825dd29073e6ac1db5e789f1b64961&skey=@crypt_19753c23_05fa7a994bb1092bdd72a1191a0443aa
p4507
sVSex
p4508
I1
sVStarFriend
p4509
I0
sVStatues
p4510
I0
sa(dp4511
VUserName
p4512
V@8bb1c1c34d6fe816356232817ef63eefbe9e0ce516839372478d0ec84c229654
p4513
sVCity
p4514
V\u829c\u6e56
p4515
sVDisplayName
p4516
g39
sVUniFriend
p4517
I0
sVMemberList
p4518
(lp4519
sVPYQuanPin
p4520
VVmaizhuchirenabao
p4521
sVRemarkPYInitial
p4522
g39
sVUin
p4523
I0
sVAppAccountFlag
p4524
I0
sVVerifyFlag
p4525
I0
sVProvince
p4526
V\u5b89\u5fbd
p4527
sVKeyWord
p4528
g39
sVRemarkName
p4529
g39
sVPYInitial
p4530
VVMZCRAB
p4531
sVChatRoomId
p4532
I0
sVIsOwner
p4533
I0
sVHideInputBarFlag
p4534
I0
sVEncryChatRoomId
p4535
g39
sVAttrStatus
p4536
I102501
sVSnsFlag
p4537
I49
sVMemberCount
p4538
I0
sVOwnerUin
p4539
I0
sVAlias
p4540
VZcrabao188
p4541
sVSignature
p4542
V\u8457\u540d\u4e3b\u6301\u4eba|\u5a5a\u793c\u7f8e\u5b66
p4543
sVContactFlag
p4544
I65793
sVNickName
p4545
VV\u9ea6\u4e3b\u6301\u4eba-\u963f\u5b9d
p4546
sVRemarkPYQuanPin
p4547
g39
sVHeadImgUrl
p4548
V/cgi-bin/mmwebwx-bin/webwxgeticon?seq=677364029&username=@8bb1c1c34d6fe816356232817ef63eefbe9e0ce516839372478d0ec84c229654&skey=@crypt_19753c23_05fa7a994bb1092bdd72a1191a0443aa
p4549
sVSex
p4550
I1
sVStarFriend
p4551
I0
sVStatues
p4552
I0
sa(dp4553
VUserName
p4554
V@ed181997c2aae290ebed66d9c0c742e9
p4555
sVCity
p4556
g39
sVDisplayName
p4557
g39
sVUniFriend
p4558
I0
sVMemberList
p4559
(lp4560
sVPYQuanPin
p4561
Vliukairan?
p4562
sVRemarkPYInitial
p4563
g39
sVUin
p4564
I0
sVAppAccountFlag
p4565
I0
sVVerifyFlag
p4566
I0
sVProvince
p4567
g39
sVKeyWord
p4568
Vlkr
p4569
sVRemarkName
p4570
g39
sVPYInitial
p4571
VLKR?
p4572
sVChatRoomId
p4573
I0
sVIsOwner
p4574
I0
sVHideInputBarFlag
p4575
I0
sVEncryChatRoomId
p4576
g39
sVAttrStatus
p4577
I103523
sVSnsFlag
p4578
I17
sVMemberCount
p4579
I0
sVOwnerUin
p4580
I0
sVAlias
p4581
g39
sVSignature
p4582
Vnothing   nobody
p4583
sVContactFlag
p4584
I1
sVNickName
p4585
V\u67f3\u6168\u7136\U0001f4ad
p4586
sVRemarkPYQuanPin
p4587
g39
sVHeadImgUrl
p4588
V/cgi-bin/mmwebwx-bin/webwxgeticon?seq=661022692&username=@ed181997c2aae290ebed66d9c0c742e9&skey=@crypt_19753c23_05fa7a994bb1092bdd72a1191a0443aa
p4589
sVSex
p4590
I1
sVStarFriend
p4591
I0
sVStatues
p4592
I0
sa(dp4593
VUserName
p4594
V@4d332f1a34c4fcb7c10b9378ae3b16aba4be6f16ccff29a17067efcbd88874f5
p4595
sVCity
p4596
V\u829c\u6e56
p4597
sVDisplayName
p4598
g39
sVUniFriend
p4599
I0
sVMemberList
p4600
(lp4601
sVPYQuanPin
p4602
VEleanorspanclassemojiemoji1f343span
p4603
sVRemarkPYInitial
p4604
g39
sVUin
p4605
I0
sVAppAccountFlag
p4606
I0
sVVerifyFlag
p4607
I0
sVProvince
p4608
V\u5b89\u5fbd
p4609
sVKeyWord
p4610
g39
sVRemarkName
p4611
g39
sVPYInitial
p4612
VELEANORSPANCLASSEMOJIEMOJI1F343SPAN
p4613
sVChatRoomId
p4614
I0
sVIsOwner
p4615
I0
sVHideInputBarFlag
p4616
I0
sVEncryChatRoomId
p4617
g39
sVAttrStatus
p4618
I102503
sVSnsFlag
p4619
I49
sVMemberCount
p4620
I0
sVOwnerUin
p4621
I0
sVAlias
p4622
Veleanor0105
p4623
sVSignature
p4624
g39
sVContactFlag
p4625
I1
sVNickName
p4626
VEleanor\U0001f343
p4627
sVRemarkPYQuanPin
p4628
g39
sVHeadImgUrl
p4629
V/cgi-bin/mmwebwx-bin/webwxgeticon?seq=677366737&username=@4d332f1a34c4fcb7c10b9378ae3b16aba4be6f16ccff29a17067efcbd88874f5&skey=@crypt_19753c23_05fa7a994bb1092bdd72a1191a0443aa
p4630
sVSex
p4631
I2
sVStarFriend
p4632
I0
sVStatues
p4633
I0
sa(dp4634
VUserName
p4635
V@637d2f7a9fb7bfa785e8eb136df95cd30d10026e1766225c3bbe621ca96aea61
p4636
sVCity
p4637
V\u829c\u6e56
p4638
sVDisplayName
p4639
g39
sVUniFriend
p4640
I0
sVMemberList
p4641
(lp4642
sVPYQuanPin
p4643
Vbangxiaohui
p4644
sVRemarkPYInitial
p4645
g39
sVUin
p4646
I0
sVAppAccountFlag
p4647
I0
sVVerifyFlag
p4648
I0
sVProvince
p4649
V\u5b89\u5fbd
p4650
sVKeyWord
p4651
g39
sVRemarkName
p4652
g39
sVPYInitial
p4653
VBXH
p4654
sVChatRoomId
p4655
I0
sVIsOwner
p4656
I0
sVHideInputBarFlag
p4657
I0
sVEncryChatRoomId
p4658
g39
sVAttrStatus
p4659
I103485
sVSnsFlag
p4660
I17
sVMemberCount
p4661
I0
sVOwnerUin
p4662
I0
sVAlias
p4663
VANG890206
p4664
sVSignature
p4665
V\u5411\u4e0a\u722c\u65f6\uff0c\u5bf9\u9047\u5230\u7684\u4eba\u597d\u70b9\uff0c\u56e0\u4e3a\u6389\u4e0b\u6765\u65f6\uff0c\u4f60\u8fd8\u4f1a\u9047\u5230\u4ed6\u4eec\u3002
p4666
sVContactFlag
p4667
I65537
sVNickName
p4668
V\u68d2\u5c0f\u60e0
p4669
sVRemarkPYQuanPin
p4670
g39
sVHeadImgUrl
p4671
V/cgi-bin/mmwebwx-bin/webwxgeticon?seq=637727579&username=@637d2f7a9fb7bfa785e8eb136df95cd30d10026e1766225c3bbe621ca96aea61&skey=@crypt_19753c23_05fa7a994bb1092bdd72a1191a0443aa
p4672
sVSex
p4673
I2
sVStarFriend
p4674
I0
sVStatues
p4675
I0
sa(dp4676
VUserName
p4677
V@18689736c13c1458510b077e21b0ed23188caa77c1d48bd0af207e5a0dc3be31
p4678
sVCity
p4679
V\u829c\u6e56
p4680
sVDisplayName
p4681
g39
sVUniFriend
p4682
I0
sVMemberList
p4683
(lp4684
sVPYQuanPin
p4685
Vwangpei
p4686
sVRemarkPYInitial
p4687
g39
sVUin
p4688
I0
sVAppAccountFlag
p4689
I0
sVVerifyFlag
p4690
I0
sVProvince
p4691
V\u5b89\u5fbd
p4692
sVKeyWord
p4693
g39
sVRemarkName
p4694
g39
sVPYInitial
p4695
VWP
p4696
sVChatRoomId
p4697
I0
sVIsOwner
p4698
I0
sVHideInputBarFlag
p4699
I0
sVEncryChatRoomId
p4700
g39
sVAttrStatus
p4701
I4133
sVSnsFlag
p4702
I17
sVMemberCount
p4703
I0
sVOwnerUin
p4704
I0
sVAlias
p4705
Vwp4709343198
p4706
sVSignature
p4707
V15055333122
p4708
sVContactFlag
p4709
I1
sVNickName
p4710
V\u738b\u57f9
p4711
sVRemarkPYQuanPin
p4712
g39
sVHeadImgUrl
p4713
V/cgi-bin/mmwebwx-bin/webwxgeticon?seq=677376453&username=@18689736c13c1458510b077e21b0ed23188caa77c1d48bd0af207e5a0dc3be31&skey=@crypt_19753c23_05fa7a994bb1092bdd72a1191a0443aa
p4714
sVSex
p4715
I1
sVStarFriend
p4716
I0
sVStatues
p4717
I0
sa(dp4718
VUserName
p4719
V@48e930747fe3aee98415e3cc8885f9f0
p4720
sVCity
p4721
V\u5357\u4eac
p4722
sVDisplayName
p4723
g39
sVUniFriend
p4724
I0
sVMemberList
p4725
(lp4726
sVPYQuanPin
p4727
VCocoa
p4728
sVRemarkPYInitial
p4729
g39
sVUin
p4730
I0
sVAppAccountFlag
p4731
I0
sVVerifyFlag
p4732
I0
sVProvince
p4733
V\u6c5f\u82cf
p4734
sVKeyWord
p4735
Vhco
p4736
sVRemarkName
p4737
g39
sVPYInitial
p4738
VCOCOA
p4739
sVChatRoomId
p4740
I0
sVIsOwner
p4741
I0
sVHideInputBarFlag
p4742
I0
sVEncryChatRoomId
p4743
g39
sVAttrStatus
p4744
I4294247
sVSnsFlag
p4745
I17
sVMemberCount
p4746
I0
sVOwnerUin
p4747
I0
sVAlias
p4748
g39
sVSignature
p4749
V\u6211\u60f3\u53d8\u6210\u4e00\u53ea\u80d6\u55b5\uff0c\u5927\u90e8\u5206\u7684\u65f6\u5019\u8db4\u7740\u7761\u89c9\uff0c\u5076\u5c14\u8eba\u7740\u7761\u89c9\uff5e\uff5e
p4750
sVContactFlag
p4751
I1
sVNickName
p4752
VCocoa
p4753
sVRemarkPYQuanPin
p4754
g39
sVHeadImgUrl
p4755
V/cgi-bin/mmwebwx-bin/webwxgeticon?seq=661016927&username=@48e930747fe3aee98415e3cc8885f9f0&skey=@crypt_19753c23_05fa7a994bb1092bdd72a1191a0443aa
p4756
sVSex
p4757
I1
sVStarFriend
p4758
I0
sVStatues
p4759
I0
sa(dp4760
VUserName
p4761
V@85a28de8e636d34c099fcd8801c8223f7e257fe813eea5d17988b8a126274eb6
p4762
sVCity
p4763
V\u82cf\u5dde
p4764
sVDisplayName
p4765
g39
sVUniFriend
p4766
I0
sVMemberList
p4767
(lp4768
sVPYQuanPin
p4769
VSunnySunshine
p4770
sVRemarkPYInitial
p4771
g39
sVUin
p4772
I0
sVAppAccountFlag
p4773
I0
sVVerifyFlag
p4774
I0
sVProvince
p4775
V\u6c5f\u82cf
p4776
sVKeyWord
p4777
g39
sVRemarkName
p4778
g39
sVPYInitial
p4779
VSUNNYSUNSHINE
p4780
sVChatRoomId
p4781
I0
sVIsOwner
p4782
I0
sVHideInputBarFlag
p4783
I0
sVEncryChatRoomId
p4784
g39
sVAttrStatus
p4785
I231461
sVSnsFlag
p4786
I49
sVMemberCount
p4787
I0
sVOwnerUin
p4788
I0
sVAlias
p4789
VSingernan
p4790
sVSignature
p4791
VKeep Moving 
p4792
sVContactFlag
p4793
I1
sVNickName
p4794
VSunny Sunshine
p4795
sVRemarkPYQuanPin
p4796
g39
sVHeadImgUrl
p4797
V/cgi-bin/mmwebwx-bin/webwxgeticon?seq=661004596&username=@85a28de8e636d34c099fcd8801c8223f7e257fe813eea5d17988b8a126274eb6&skey=@crypt_19753c23_05fa7a994bb1092bdd72a1191a0443aa
p4798
sVSex
p4799
I2
sVStarFriend
p4800
I0
sVStatues
p4801
I0
sa(dp4802
VUserName
p4803
V@a64601aad5c412b6916cc265f57a46dd1a1a0fbb180112520c2a4cc40c77e9f7
p4804
sVCity
p4805
V\u829c\u6e56
p4806
sVDisplayName
p4807
g39
sVUniFriend
p4808
I0
sVMemberList
p4809
(lp4810
sVPYQuanPin
p4811
Voyuanxiaobabi
p4812
sVRemarkPYInitial
p4813
g39
sVUin
p4814
I0
sVAppAccountFlag
p4815
I0
sVVerifyFlag
p4816
I0
sVProvince
p4817
V\u5b89\u5fbd
p4818
sVKeyWord
p4819
g39
sVRemarkName
p4820
g39
sVPYInitial
p4821
VOYXBB
p4822
sVChatRoomId
p4823
I0
sVIsOwner
p4824
I0
sVHideInputBarFlag
p4825
I0
sVEncryChatRoomId
p4826
g39
sVAttrStatus
p4827
I110695
sVSnsFlag
p4828
I49
sVMemberCount
p4829
I0
sVOwnerUin
p4830
I0
sVAlias
p4831
VKevinXu310
p4832
sVSignature
p4833
V\u5143\u5bb5\u5b9d\u5b9d\uff5e
p4834
sVContactFlag
p4835
I1
sVNickName
p4836
V^o^\u5143\u5bb5\u7238\u6bd4
p4837
sVRemarkPYQuanPin
p4838
g39
sVHeadImgUrl
p4839
V/cgi-bin/mmwebwx-bin/webwxgeticon?seq=660998453&username=@a64601aad5c412b6916cc265f57a46dd1a1a0fbb180112520c2a4cc40c77e9f7&skey=@crypt_19753c23_05fa7a994bb1092bdd72a1191a0443aa
p4840
sVSex
p4841
I1
sVStarFriend
p4842
I0
sVStatues
p4843
I0
sa(dp4844
VUserName
p4845
V@e6832e78c6adea8199ea02fb46aa66721aa9e33446d8ee6bab9b0062ff74603f
p4846
sVCity
p4847
V\u5408\u80a5
p4848
sVDisplayName
p4849
g39
sVUniFriend
p4850
I0
sVMemberList
p4851
(lp4852
sVPYQuanPin
p4853
Vkelisixu
p4854
sVRemarkPYInitial
p4855
g39
sVUin
p4856
I0
sVAppAccountFlag
p4857
I0
sVVerifyFlag
p4858
I0
sVProvince
p4859
V\u5b89\u5fbd
p4860
sVKeyWord
p4861
g39
sVRemarkName
p4862
g39
sVPYInitial
p4863
VKLSX
p4864
sVChatRoomId
p4865
I0
sVIsOwner
p4866
I0
sVHideInputBarFlag
p4867
I0
sVEncryChatRoomId
p4868
g39
sVAttrStatus
p4869
I102437
sVSnsFlag
p4870
I17
sVMemberCount
p4871
I0
sVOwnerUin
p4872
I0
sVAlias
p4873
VHF_CrisXu
p4874
sVSignature
p4875
g39
sVContactFlag
p4876
I1
sVNickName
p4877
V\u514b\u91cc\u65af\u5f90
p4878
sVRemarkPYQuanPin
p4879
g39
sVHeadImgUrl
p4880
V/cgi-bin/mmwebwx-bin/webwxgeticon?seq=677367620&username=@e6832e78c6adea8199ea02fb46aa66721aa9e33446d8ee6bab9b0062ff74603f&skey=@crypt_19753c23_05fa7a994bb1092bdd72a1191a0443aa
p4881
sVSex
p4882
I1
sVStarFriend
p4883
I0
sVStatues
p4884
I0
sa(dp4885
VUserName
p4886
V@742d4d839366f0887a2972b36dcf9c5b846617c67dceebe2d1e2c524df62b9fc
p4887
sVCity
p4888
V\u5357\u4eac
p4889
sVDisplayName
p4890
g39
sVUniFriend
p4891
I0
sVMemberList
p4892
(lp4893
sVPYQuanPin
p4894
VMarvin
p4895
sVRemarkPYInitial
p4896
g39
sVUin
p4897
I0
sVAppAccountFlag
p4898
I0
sVVerifyFlag
p4899
I0
sVProvince
p4900
V\u6c5f\u82cf
p4901
sVKeyWord
p4902
g39
sVRemarkName
p4903
g39
sVPYInitial
p4904
VMARVIN
p4905
sVChatRoomId
p4906
I0
sVIsOwner
p4907
I0
sVHideInputBarFlag
p4908
I0
sVEncryChatRoomId
p4909
g39
sVAttrStatus
p4910
I66685
sVSnsFlag
p4911
I17
sVMemberCount
p4912
I0
sVOwnerUin
p4913
I0
sVAlias
p4914
VSungod_Zz
p4915
sVSignature
p4916
VTry Everything
p4917
sVContactFlag
p4918
I1
sVNickName
p4919
VMarvin
p4920
sVRemarkPYQuanPin
p4921
g39
sVHeadImgUrl
p4922
V/cgi-bin/mmwebwx-bin/webwxgeticon?seq=661019317&username=@742d4d839366f0887a2972b36dcf9c5b846617c67dceebe2d1e2c524df62b9fc&skey=@crypt_19753c23_05fa7a994bb1092bdd72a1191a0443aa
p4923
sVSex
p4924
I1
sVStarFriend
p4925
I0
sVStatues
p4926
I0
sasS'chatroomList'
p4927
(lp4928
(dp4929
VUserName
p4930
V@@5c5c116267d731c2de80e121eaac96773cead84b70c7430921526b06c5d8b618
p4931
sVCity
p4932
g39
sVDisplayName
p4933
g39
sVUniFriend
p4934
I0
sS'self'
p4935
(dp4936
g27
g22
sg29
g32
sg31
g32
sg33
I0
sg59
I0
sg34
(lp4937
sg36
g39
sg38
g39
sg68
I1528367960
sg41
I0
sg42
I0
sg43
g32
sg45
g32
sg47
g39
sg48
g39
sg51
I0
sg52
I0
sg53
I1
sg54
g32
sg55
I0
sg57
I49
sg58
I0
sg56
I0
sg60
g32
sg61
g39
sg62
I0
sg63
VJason
p4938
sg65
g39
sg66
V/cgi-bin/mmwebwx-bin/webwxgeticon?seq=261775866&username=@5a537fad437e95462bf04aecddbdf066&skey=@crypt_19753c23_05fa7a994bb1092bdd72a1191a0443aa
p4939
sg40
I1
sg69
I0
sg70
I0
ssVMemberList
p4940
(lp4941
sVPYQuanPin
p4942
Vwomenjixiongdi
p4943
sVRemarkPYInitial
p4944
g39
sVSex
p4945
I0
sVAppAccountFlag
p4946
I0
sVVerifyFlag
p4947
I0
sVProvince
p4948
g39
sVKeyWord
p4949
g39
sVRemarkName
p4950
g39
sVPYInitial
p4951
VWMJXD
p4952
sVIsOwner
p4953
I1
sVChatRoomId
p4954
I0
sVHideInputBarFlag
p4955
I0
sVEncryChatRoomId
p4956
g39
sVAttrStatus
p4957
I0
sVSnsFlag
p4958
I0
sVMemberCount
p4959
I0
sVOwnerUin
p4960
I0
sVAlias
p4961
g39
sVSignature
p4962
g39
sVContactFlag
p4963
I1
sVNickName
p4964
V\u6211\u4eec\u51e0\u5144\u5f1f
p4965
sVRemarkPYQuanPin
p4966
g39
sVHeadImgUrl
p4967
V/cgi-bin/mmwebwx-bin/webwxgetheadimg?seq=660990756&username=@@5c5c116267d731c2de80e121eaac96773cead84b70c7430921526b06c5d8b618&skey=@crypt_19753c23_05fa7a994bb1092bdd72a1191a0443aa
p4968
sVUin
p4969
I0
sVStarFriend
p4970
I0
sVStatues
p4971
I1
sS'isAdmin'
p4972
Nsa(dp4973
VUserName
p4974
V@@840a39de97267ff9221d49d565aa7a4f8a62f41c52196d128b30f44207df330e
p4975
sVCity
p4976
g39
sVDisplayName
p4977
g39
sVUniFriend
p4978
I0
sg4935
(dp4979
g27
g22
sg29
g32
sg31
g32
sg33
I0
sg59
I0
sg34
(lp4980
sg36
g39
sg38
g39
sg68
I1528367960
sg41
I0
sg42
I0
sg43
g32
sg45
g32
sg47
g39
sg48
g39
sg51
I0
sg52
I0
sg53
I1
sg54
g32
sg55
I0
sg57
I49
sg58
I0
sg56
I0
sg60
g32
sg61
g39
sg62
I0
sg63
g4938
sg65
g39
sg66
g4939
sg40
I1
sg69
I0
sg70
I0
ssVMemberList
p4981
(lp4982
sVPYQuanPin
p4983
VningmoweixinsuoshiJasonwardking
p4984
sVRemarkPYInitial
p4985
g39
sVSex
p4986
I0
sVAppAccountFlag
p4987
I0
sVVerifyFlag
p4988
I0
sVProvince
p4989
g39
sVKeyWord
p4990
g39
sVRemarkName
p4991
g39
sVPYInitial
p4992
VNMWXSSJASONWARDKING
p4993
sVIsOwner
p4994
I1
sVChatRoomId
p4995
I0
sVHideInputBarFlag
p4996
I0
sVEncryChatRoomId
p4997
g39
sVAttrStatus
p4998
I0
sVSnsFlag
p4999
I0
sVMemberCount
p5000
I0
sVOwnerUin
p5001
I0
sVAlias
p5002
g39
sVSignature
p5003
g39
sVContactFlag
p5004
I3
sVNickName
p5005
V\u51dd\u58a8,\u552f\u5fc3\u6240\u8bc6,Jason,wardking
p5006
sVRemarkPYQuanPin
p5007
g39
sVHeadImgUrl
p5008
V/cgi-bin/mmwebwx-bin/webwxgetheadimg?seq=677365411&username=@@840a39de97267ff9221d49d565aa7a4f8a62f41c52196d128b30f44207df330e&skey=@crypt_19753c23_05fa7a994bb1092bdd72a1191a0443aa
p5009
sVUin
p5010
I0
sVStarFriend
p5011
I0
sVStatues
p5012
I1
sg4972
Nsa(dp5013
VUserName
p5014
V@@78454328e09308351bd3ec3245376a84cc1e2713a4e5b7f10261e46a5bbbc078
p5015
sVCity
p5016
g39
sVDisplayName
p5017
g39
sVUniFriend
p5018
I0
sg4935
(dp5019
g27
g22
sg29
g32
sg31
g32
sg33
I0
sg59
I0
sg34
(lp5020
sg36
g39
sg38
g39
sg68
I1528367960
sg41
I0
sg42
I0
sg43
g32
sg45
g32
sg47
g39
sg48
g39
sg51
I0
sg52
I0
sg53
I1
sg54
g32
sg55
I0
sg57
I49
sg58
I0
sg56
I0
sg60
g32
sg61
g39
sg62
I0
sg63
g4938
sg65
g39
sg66
g4939
sg40
I1
sg69
I0
sg70
I0
ssVMemberList
p5021
(lp5022
sVPYQuanPin
p5023
VhuashuoHADEStaolunzu
p5024
sVRemarkPYInitial
p5025
g39
sVSex
p5026
I0
sVAppAccountFlag
p5027
I0
sVVerifyFlag
p5028
I0
sVProvince
p5029
g39
sVKeyWord
p5030
g39
sVRemarkName
p5031
g39
sVPYInitial
p5032
VHSHADESTLZ
p5033
sVIsOwner
p5034
I0
sVChatRoomId
p5035
I0
sVHideInputBarFlag
p5036
I0
sVEncryChatRoomId
p5037
g39
sVAttrStatus
p5038
I0
sVSnsFlag
p5039
I0
sVMemberCount
p5040
I0
sVOwnerUin
p5041
I0
sVAlias
p5042
g39
sVSignature
p5043
g39
sVContactFlag
p5044
I1
sVNickName
p5045
V\u534e\u7855HADES\u8ba8\u8bba\u7ec4
p5046
sVRemarkPYQuanPin
p5047
g39
sVHeadImgUrl
p5048
V/cgi-bin/mmwebwx-bin/webwxgetheadimg?seq=661012304&username=@@78454328e09308351bd3ec3245376a84cc1e2713a4e5b7f10261e46a5bbbc078&skey=@crypt_19753c23_05fa7a994bb1092bdd72a1191a0443aa
p5049
sVUin
p5050
I0
sVStarFriend
p5051
I0
sVStatues
p5052
I1
sg4972
Nsa(dp5053
VUserName
p5054
V@@72e47b7b0b63bf9903156c8dee48b28ef3b73a2fe4cc85b20b44d30084998d5d
p5055
sVCity
p5056
g39
sVDisplayName
p5057
g39
sVUniFriend
p5058
I0
sg4935
(dp5059
g27
g22
sg29
g32
sg31
g32
sg33
I0
sg59
I0
sg34
(lp5060
sg36
g39
sg38
g39
sg68
I1528367960
sg41
I0
sg42
I0
sg43
g32
sg45
g32
sg47
g39
sg48
g39
sg51
I0
sg52
I0
sg53
I1
sg54
g32
sg55
I0
sg57
I49
sg58
I0
sg56
I0
sg60
g32
sg61
g39
sg62
I0
sg63
g4938
sg65
g39
sg66
g4939
sg40
I1
sg69
I0
sg70
I0
ssVMemberList
p5061
(lp5062
sVPYQuanPin
p5063
Vxiaoxuequn
p5064
sVRemarkPYInitial
p5065
g39
sVSex
p5066
I0
sVAppAccountFlag
p5067
I0
sVVerifyFlag
p5068
I0
sVProvince
p5069
g39
sVKeyWord
p5070
g39
sVRemarkName
p5071
g39
sVPYInitial
p5072
VXXQ
p5073
sVIsOwner
p5074
I0
sVChatRoomId
p5075
I0
sVHideInputBarFlag
p5076
I0
sVEncryChatRoomId
p5077
g39
sVAttrStatus
p5078
I0
sVSnsFlag
p5079
I0
sVMemberCount
p5080
I0
sVOwnerUin
p5081
I0
sVAlias
p5082
g39
sVSignature
p5083
g39
sVContactFlag
p5084
I1
sVNickName
p5085
V\u5c0f\u5b66\u7fa4
p5086
sVRemarkPYQuanPin
p5087
g39
sVHeadImgUrl
p5088
V/cgi-bin/mmwebwx-bin/webwxgetheadimg?seq=660995825&username=@@72e47b7b0b63bf9903156c8dee48b28ef3b73a2fe4cc85b20b44d30084998d5d&skey=@crypt_19753c23_05fa7a994bb1092bdd72a1191a0443aa
p5089
sVUin
p5090
I0
sVStarFriend
p5091
I0
sVStatues
p5092
I0
sg4972
Nsa(dp5093
VUserName
p5094
V@@b65371c3041c98d3aae86e503fae6abee5950b5c64162635a9805de4d2dc643e
p5095
sVCity
p5096
g39
sVDisplayName
p5097
g39
sVUniFriend
p5098
I0
sg4935
(dp5099
g27
g22
sg29
g32
sg31
g32
sg33
I0
sg59
I0
sg34
(lp5100
sg36
g39
sg38
g39
sg68
I1528367960
sg41
I0
sg42
I0
sg43
g32
sg45
g32
sg47
g39
sg48
g39
sg51
I0
sg52
I0
sg53
I1
sg54
g32
sg55
I0
sg57
I49
sg58
I0
sg56
I0
sg60
g32
sg61
g39
sg62
I0
sg63
g4938
sg65
g39
sg66
g4939
sg40
I1
sg69
I0
sg70
I0
ssVMemberList
p5101
(lp5102
sVPYQuanPin
p5103
V27zhong
p5104
sVRemarkPYInitial
p5105
g39
sVSex
p5106
I0
sVAppAccountFlag
p5107
I0
sVVerifyFlag
p5108
I0
sVProvince
p5109
g39
sVKeyWord
p5110
g39
sVRemarkName
p5111
g39
sVPYInitial
p5112
V27Z
p5113
sVIsOwner
p5114
I0
sVChatRoomId
p5115
I0
sVHideInputBarFlag
p5116
I0
sVEncryChatRoomId
p5117
g39
sVAttrStatus
p5118
I0
sVSnsFlag
p5119
I0
sVMemberCount
p5120
I0
sVOwnerUin
p5121
I0
sVAlias
p5122
g39
sVSignature
p5123
g39
sVContactFlag
p5124
I1
sVNickName
p5125
V27\u4e2d
p5126
sVRemarkPYQuanPin
p5127
g39
sVHeadImgUrl
p5128
V/cgi-bin/mmwebwx-bin/webwxgetheadimg?seq=661003755&username=@@b65371c3041c98d3aae86e503fae6abee5950b5c64162635a9805de4d2dc643e&skey=@crypt_19753c23_05fa7a994bb1092bdd72a1191a0443aa
p5129
sVUin
p5130
I0
sVStarFriend
p5131
I0
sVStatues
p5132
I1
sg4972
Nsa(dp5133
VUserName
p5134
V@@b6e13c41645c4a451c639d9915b5868e7f564a0d81c5fe3649996f6587843b39
p5135
sVCity
p5136
g39
sVDisplayName
p5137
g39
sVUniFriend
p5138
I0
sg4935
(dp5139
g27
g22
sg29
g32
sg31
g32
sg33
I0
sg59
I0
sg34
(lp5140
sg36
g39
sg38
g39
sg68
I1528367960
sg41
I0
sg42
I0
sg43
g32
sg45
g32
sg47
g39
sg48
g39
sg51
I0
sg52
I0
sg53
I1
sg54
g32
sg55
I0
sg57
I49
sg58
I0
sg56
I0
sg60
g32
sg61
g39
sg62
I0
sg63
g4938
sg65
g39
sg66
g4939
sg40
I1
sg69
I0
sg70
I0
ssVMemberList
p5141
(lp5142
sVPYQuanPin
p5143
Vhuashuosoterjieru
p5144
sVRemarkPYInitial
p5145
g39
sVSex
p5146
I0
sVAppAccountFlag
p5147
I0
sVVerifyFlag
p5148
I0
sVProvince
p5149
g39
sVKeyWord
p5150
g39
sVRemarkName
p5151
g39
sVPYInitial
p5152
VHSSOTERJR
p5153
sVIsOwner
p5154
I0
sVChatRoomId
p5155
I0
sVHideInputBarFlag
p5156
I0
sVEncryChatRoomId
p5157
g39
sVAttrStatus
p5158
I0
sVSnsFlag
p5159
I0
sVMemberCount
p5160
I0
sVOwnerUin
p5161
I0
sVAlias
p5162
g39
sVSignature
p5163
g39
sVContactFlag
p5164
I1
sVNickName
p5165
V\u534e\u7855soter\u63a5\u5165
p5166
sVRemarkPYQuanPin
p5167
g39
sVHeadImgUrl
p5168
V/cgi-bin/mmwebwx-bin/webwxgetheadimg?seq=661014017&username=@@b6e13c41645c4a451c639d9915b5868e7f564a0d81c5fe3649996f6587843b39&skey=@crypt_19753c23_05fa7a994bb1092bdd72a1191a0443aa
p5169
sVUin
p5170
I0
sVStarFriend
p5171
I0
sVStatues
p5172
I1
sg4972
NsasS'nickName'
p5173
g4938
sS'mpList'
p5174
(lp5175
(dp5176
VUserName
p5177
V@96528e6e9deef89ef29a054477d04fb1
p5178
sVCity
p5179
V\u5927\u5174
p5180
sVDisplayName
p5181
g39
sVUniFriend
p5182
I0
sVMemberList
p5183
(lp5184
sVPYQuanPin
p5185
Vsuqun
p5186
sVRemarkPYInitial
p5187
g39
sVUin
p5188
I0
sVAppAccountFlag
p5189
I0
sVVerifyFlag
p5190
I24
sVProvince
p5191
V\u5317\u4eac
p5192
sVKeyWord
p5193
Vgh_
p5194
sVRemarkName
p5195
g39
sVPYInitial
p5196
VSQ
p5197
sVChatRoomId
p5198
I0
sVIsOwner
p5199
I0
sVHideInputBarFlag
p5200
I0
sVEncryChatRoomId
p5201
g39
sVAttrStatus
p5202
I0
sVSnsFlag
p5203
I0
sVMemberCount
p5204
I0
sVOwnerUin
p5205
I0
sVAlias
p5206
Vsuqunbasketball
p5207
sVSignature
p5208
V\u82cf\u7fa4\u548c\u4f60\u5206\u4eab\u7bee\u7403\u548c\u751f\u6d3b
p5209
sVContactFlag
p5210
I3
sVNickName
p5211
V\u82cf\u7fa4
p5212
sVRemarkPYQuanPin
p5213
g39
sVHeadImgUrl
p5214
V/cgi-bin/mmwebwx-bin/webwxgeticon?seq=621027721&username=@96528e6e9deef89ef29a054477d04fb1&skey=@crypt_19753c23_05fa7a994bb1092bdd72a1191a0443aa
p5215
sVSex
p5216
I0
sVStarFriend
p5217
I0
sVStatues
p5218
I0
sa(dp5219
VUserName
p5220
V@524b1d296409004a0c2eed71f17312a3
p5221
sVCity
p5222
V\u9ec4\u6d66
p5223
sVDisplayName
p5224
g39
sVUniFriend
p5225
I0
sVMemberList
p5226
(lp5227
sVPYQuanPin
p5228
Vzhanhao
p5229
sVRemarkPYInitial
p5230
g39
sVUin
p5231
I0
sVAppAccountFlag
p5232
I0
sVVerifyFlag
p5233
I24
sVProvince
p5234
V\u4e0a\u6d77
p5235
sVKeyWord
p5236
Vgh_
p5237
sVRemarkName
p5238
g39
sVPYInitial
p5239
VZH
p5240
sVChatRoomId
p5241
I0
sVIsOwner
p5242
I0
sVHideInputBarFlag
p5243
I0
sVEncryChatRoomId
p5244
g39
sVAttrStatus
p5245
I0
sVSnsFlag
p5246
I0
sVMemberCount
p5247
I0
sVOwnerUin
p5248
I0
sVAlias
p5249
Vzhanhao668
p5250
sVSignature
p5251
V\u72ec\u7acb\u601d\u8003\u5ba2\u89c2\u7406\u6027\u4e2d\u56fd\u7acb\u573a\u767e\u59d3\u89c6\u89d2\u5e73\u5b9e\u6587\u5b57\u5206\u4eab\u5929\u4e0b\u4e8b\u4e28\u56fd\u9645\u5c40\u52bf\u8d22\u7ecf\u6295\u8d44\u56fd\u5b66\u54f2\u5b66\u4e2814\u300115\u5e74\u5ea6\u81ea\u5a92\u4f53\u767e\u5927\u4eba\u7269/\u81ea\u5a92\u4f53\u6700\u4f73\u8868\u73b0\u5927\u5956/\u6700\u53d7\u4e2d\u56fd\u4f01\u4e1a\u5173\u6ce8\u7684\u81ea\u5a92\u4f53\u8d26\u53f7\u4e28\u6211\u4eec\u4e00\u8d77\u540c\u884c\uff0c\u6211\u4eec\u4e00\u8d77\u8fdb\u6b65\uff01
p5252
sVContactFlag
p5253
I3
sVNickName
p5254
V\u5360\u8c6a
p5255
sVRemarkPYQuanPin
p5256
g39
sVHeadImgUrl
p5257
V/cgi-bin/mmwebwx-bin/webwxgeticon?seq=621818910&username=@524b1d296409004a0c2eed71f17312a3&skey=@crypt_19753c23_05fa7a994bb1092bdd72a1191a0443aa
p5258
sVSex
p5259
I0
sVStarFriend
p5260
I0
sVStatues
p5261
I0
sa(dp5262
VUserName
p5263
V@b116547b437ff2fe55dc7445a33d53d5
p5264
sVCity
p5265
V\u6d77\u6dc0
p5266
sVDisplayName
p5267
g39
sVUniFriend
p5268
I0
sVMemberList
p5269
(lp5270
sVPYQuanPin
p5271
V500qiangjiaoyuanzhaopin
p5272
sVRemarkPYInitial
p5273
g39
sVUin
p5274
I0
sVAppAccountFlag
p5275
I0
sVVerifyFlag
p5276
I8
sVProvince
p5277
V\u5317\u4eac
p5278
sVKeyWord
p5279
Vgh_
p5280
sVRemarkName
p5281
g39
sVPYInitial
p5282
V500QJYZP
p5283
sVChatRoomId
p5284
I0
sVIsOwner
p5285
I0
sVHideInputBarFlag
p5286
I0
sVEncryChatRoomId
p5287
g39
sVAttrStatus
p5288
I0
sVSnsFlag
p5289
I0
sVMemberCount
p5290
I0
sVOwnerUin
p5291
I0
sVAlias
p5292
VFortune500
p5293
sVSignature
p5294
V\u6821\u62db\u5fc5\u5907\uff0160\u4e07\u4f18\u8d28\u5927\u5b66\u751f\u6c42\u804c\u9996\u9009\u5e73\u53f0\uff01\u6bcf\u65e5\u7cbe\u9009\u5168\u7f51\u4f18\u8d28\u62db\u8058\u4fe1\u606f\uff0c\u673a\u4f1a\u53ea\u7ed9\u6709\u51c6\u5907\u7684\u4eba\uff0c\u6211\u4eec\u63d0\u4f9b\u673a\u4f1a\uff01\u4f01\u4e1a\u62db\u8058\u6295\u7a3f\u6216\u5546\u52a1\u5408\u4f5c\u8054\u7cfbQQ\uff1a1298147655
p5295
sVContactFlag
p5296
I3
sVNickName
p5297
V500\u5f3a\u6821\u56ed\u62db\u8058
p5298
sVRemarkPYQuanPin
p5299
g39
sVHeadImgUrl
p5300
V/cgi-bin/mmwebwx-bin/webwxgeticon?seq=632630278&username=@b116547b437ff2fe55dc7445a33d53d5&skey=@crypt_19753c23_05fa7a994bb1092bdd72a1191a0443aa
p5301
sVSex
p5302
I0
sVStarFriend
p5303
I0
sVStatues
p5304
I0
sa(dp5305
VUserName
p5306
V@82ded962a8a44ca3fcd1af5d7275de3c
p5307
sVCity
p5308
V\u6df1\u5733
p5309
sVDisplayName
p5310
g39
sVUniFriend
p5311
I0
sVMemberList
p5312
(lp5313
sVPYQuanPin
p5314
Vweixinhongbao
p5315
sVRemarkPYInitial
p5316
g39
sVUin
p5317
I0
sVAppAccountFlag
p5318
I0
sVVerifyFlag
p5319
I24
sVProvince
p5320
V\u5e7f\u4e1c
p5321
sVKeyWord
p5322
Vgh_
p5323
sVRemarkName
p5324
g39
sVPYInitial
p5325
VWXHB
p5326
sVChatRoomId
p5327
I0
sVIsOwner
p5328
I0
sVHideInputBarFlag
p5329
I0
sVEncryChatRoomId
p5330
g39
sVAttrStatus
p5331
I0
sVSnsFlag
p5332
I0
sVMemberCount
p5333
I0
sVOwnerUin
p5334
I0
sVAlias
p5335
Vcft_fahongbao
p5336
sVSignature
p5337
V\u5fae\u4fe1\u7ea2\u5305\u5b98\u65b9\u5e73\u53f0\uff0c\u4e3a\u4f60\u63d0\u4f9b\u5feb\u6377\u5b89\u5168\u597d\u73a9\u7684\u53d1\u7ea2\u5305\u670d\u52a1
p5338
sVContactFlag
p5339
I1
sVNickName
p5340
V\u5fae\u4fe1\u7ea2\u5305
p5341
sVRemarkPYQuanPin
p5342
g39
sVHeadImgUrl
p5343
V/cgi-bin/mmwebwx-bin/webwxgeticon?seq=621016955&username=@82ded962a8a44ca3fcd1af5d7275de3c&skey=@crypt_19753c23_05fa7a994bb1092bdd72a1191a0443aa
p5344
sVSex
p5345
I0
sVStarFriend
p5346
I0
sVStatues
p5347
I0
sa(dp5348
VUserName
p5349
V@47f47d05cb3c2db2d1d133fcd580c2c6
p5350
sVCity
p5351
V\u6df1\u5733
p5352
sVDisplayName
p5353
g39
sVUniFriend
p5354
I0
sVMemberList
p5355
(lp5356
sVPYQuanPin
p5357
Vzhongxingtongxunzhaopin
p5358
sVRemarkPYInitial
p5359
g39
sVUin
p5360
I0
sVAppAccountFlag
p5361
I0
sVVerifyFlag
p5362
I24
sVProvince
p5363
V\u5e7f\u4e1c
p5364
sVKeyWord
p5365
Vgh_
p5366
sVRemarkName
p5367
g39
sVPYInitial
p5368
VZXTXZP
p5369
sVChatRoomId
p5370
I0
sVIsOwner
p5371
I0
sVHideInputBarFlag
p5372
I0
sVEncryChatRoomId
p5373
g39
sVAttrStatus
p5374
I0
sVSnsFlag
p5375
I0
sVMemberCount
p5376
I0
sVOwnerUin
p5377
I0
sVAlias
p5378
Vjoinzte
p5379
sVSignature
p5380
V\u53d1\u5e03\u62db\u8058\u53ca\u62db\u8058\u6d3b\u52a8\u76f8\u5173\u4fe1\u606f
p5381
sVContactFlag
p5382
I3
sVNickName
p5383
V\u4e2d\u5174\u901a\u8baf\u62db\u8058
p5384
sVRemarkPYQuanPin
p5385
g39
sVHeadImgUrl
p5386
V/cgi-bin/mmwebwx-bin/webwxgeticon?seq=621824123&username=@47f47d05cb3c2db2d1d133fcd580c2c6&skey=@crypt_19753c23_05fa7a994bb1092bdd72a1191a0443aa
p5387
sVSex
p5388
I0
sVStarFriend
p5389
I0
sVStatues
p5390
I0
sa(dp5391
VUserName
p5392
V@63568d9e46dc29529e6d007ca4fd366f
p5393
sVCity
p5394
g39
sVDisplayName
p5395
g39
sVUniFriend
p5396
I0
sVMemberList
p5397
(lp5398
sVPYQuanPin
p5399
VFitTimeruijianshidai
p5400
sVRemarkPYInitial
p5401
g39
sVUin
p5402
I0
sVAppAccountFlag
p5403
I0
sVVerifyFlag
p5404
I24
sVProvince
p5405
V\u6c5f\u82cf
p5406
sVKeyWord
p5407
Vgh_
p5408
sVRemarkName
p5409
g39
sVPYInitial
p5410
VFITTIMERJSD
p5411
sVChatRoomId
p5412
I0
sVIsOwner
p5413
I0
sVHideInputBarFlag
p5414
I0
sVEncryChatRoomId
p5415
g39
sVAttrStatus
p5416
I0
sVSnsFlag
p5417
I0
sVMemberCount
p5418
I0
sVOwnerUin
p5419
I0
sVAlias
p5420
VRJFitTime
p5421
sVSignature
p5422
VFitTime\u777f\u5065\u65f6\u4ee3\u662f\u4e00\u5bb6\u5229\u7528\u4e92\u8054\u7f51\u6539\u53d8\u4e2d\u56fd\u5065\u8eab\u884c\u4e1a\u7684\u516c\u53f8\uff0c\u62e5\u6709\u6700\u5927\u7684\u5065\u8eab\u7528\u6237\u7fa4\uff0c\u5e76\u7531\u4e13\u4e1a\u7684\u6280\u672f\u56e2\u961f\u539f\u521b\u5236\u4f5c\u6559\u5b66\u5185\u5bb9\u3002 \u4e8e2014\u5e74\u521d\u83b7\u5f97\u5f90\u5c0f\u5e73\u521b\u529e\u7684\u771f\u683c\u57fa\u91d1\u5929\u4f7f\u6295\u8d44\uff0c\u968f\u540e\u5f97\u5230\u7ecf\u7eac\u4e2d\u56fd\u57fa\u91d1A\u8f6e\u52a0\u5165\u3002 \u5173\u6ce8\u6211\u4eec\u671f\u5f85\u66f4\u591a\u60ca\u559c\u3002
p5423
sVContactFlag
p5424
I3
sVNickName
p5425
VFitTime\u777f\u5065\u65f6\u4ee3
p5426
sVRemarkPYQuanPin
p5427
g39
sVHeadImgUrl
p5428
V/cgi-bin/mmwebwx-bin/webwxgeticon?seq=634761398&username=@63568d9e46dc29529e6d007ca4fd366f&skey=@crypt_19753c23_05fa7a994bb1092bdd72a1191a0443aa
p5429
sVSex
p5430
I0
sVStarFriend
p5431
I0
sVStatues
p5432
I0
sa(dp5433
VUserName
p5434
V@7e7688847c6307f4c43d506e32ae5200
p5435
sVCity
p5436
V\u671d\u9633
p5437
sVDisplayName
p5438
g39
sVUniFriend
p5439
I0
sVMemberList
p5440
(lp5441
sVPYQuanPin
p5442
Vzhenglveshuyuan
p5443
sVRemarkPYInitial
p5444
g39
sVUin
p5445
I0
sVAppAccountFlag
p5446
I0
sVVerifyFlag
p5447
I24
sVProvince
p5448
V\u5317\u4eac
p5449
sVKeyWord
p5450
Vgh_
p5451
sVRemarkName
p5452
g39
sVPYInitial
p5453
VZLSY
p5454
sVChatRoomId
p5455
I0
sVIsOwner
p5456
I0
sVHideInputBarFlag
p5457
I0
sVEncryChatRoomId
p5458
g39
sVAttrStatus
p5459
I0
sVSnsFlag
p5460
I0
sVMemberCount
p5461
I0
sVOwnerUin
p5462
I0
sVAlias
p5463
Vzldsh2014
p5464
sVSignature
p5465
V\u6b63\u7565\u4e66\u9662\u662f\u7531\u6b63\u7565\u54a8\u8be2\u53d1\u8d77\u7684\u4e00\u4e2a\u9ad8\u7aef\u6d3b\u52a8\u54c1\u724c\uff0c\u4e0b\u6709\u6b63\u7565\u8bfb\u4e66\u4f1a\u3001\u4eac\u57ce\u591c\u8bdd\u7b49\u4e0d\u540c\u6d3b\u52a8\uff0c\u6bcf\u6708\u9080\u8bf7\u8457\u540d\u7684\u4e13\u5bb6\u5b66\u8005\u6765\u89e3\u8bfb\u5386\u53f2\u3001\u89e3\u8bfb\u793e\u4f1a\u3001\u89e3\u8bfb\u4e16\u754c\u3001\u89e3\u8bfb\u4eba\u751f\u3002\u542c\u4f17\u5305\u62ec\u56fd\u5bb6\u5404\u90e8\u59d4\u7684\u4e2d\u9752\u5e74\u9886\u5bfc\u5e72\u90e8\uff0c\u56fd\u8d44\u59d4\u76f4\u5c5e\u592e\u4f01\u3001\u4e0a\u5e02\u516c\u53f8\u9ad8\u7ba1\uff0c\u6c11\u8425\u4f01\u4e1a\u5bb6\u548c\u793e\u4f1a\u5404\u754c\u7cbe\u82f1\u3002
p5466
sVContactFlag
p5467
I3
sVNickName
p5468
V\u6b63\u7565\u4e66\u9662
p5469
sVRemarkPYQuanPin
p5470
g39
sVHeadImgUrl
p5471
V/cgi-bin/mmwebwx-bin/webwxgeticon?seq=634767626&username=@7e7688847c6307f4c43d506e32ae5200&skey=@crypt_19753c23_05fa7a994bb1092bdd72a1191a0443aa
p5472
sVSex
p5473
I0
sVStarFriend
p5474
I0
sVStatues
p5475
I0
sa(dp5476
VUserName
p5477
V@639369c83f2e8564bb1c8fdc5cb6b358
p5478
sVCity
p5479
V\u829c\u6e56
p5480
sVDisplayName
p5481
g39
sVUniFriend
p5482
I0
sVMemberList
p5483
(lp5484
sVPYQuanPin
p5485
Vwuhuerbaojing
p5486
sVRemarkPYInitial
p5487
g39
sVUin
p5488
I0
sVAppAccountFlag
p5489
I0
sVVerifyFlag
p5490
I8
sVProvince
p5491
V\u5b89\u5fbd
p5492
sVKeyWord
p5493
Vgh_
p5494
sVRemarkName
p5495
g39
sVPYInitial
p5496
VWHEBJ
p5497
sVChatRoomId
p5498
I0
sVIsOwner
p5499
I0
sVHideInputBarFlag
p5500
I0
sVEncryChatRoomId
p5501
g39
sVAttrStatus
p5502
I0
sVSnsFlag
p5503
I0
sVMemberCount
p5504
I0
sVOwnerUin
p5505
I0
sVAlias
p5506
Vwherbaojin
p5507
sVSignature
p5508
V\u7528\u70ed\u7231\u829c\u6e56\u7684\u5fc3\u8bf4\u8bdd\uff01
p5509
sVContactFlag
p5510
I3
sVNickName
p5511
V\u829c\u6e56\u4e8c\u62a5\u7cbe
p5512
sVRemarkPYQuanPin
p5513
g39
sVHeadImgUrl
p5514
V/cgi-bin/mmwebwx-bin/webwxgeticon?seq=637727619&username=@639369c83f2e8564bb1c8fdc5cb6b358&skey=@crypt_19753c23_05fa7a994bb1092bdd72a1191a0443aa
p5515
sVSex
p5516
I0
sVStarFriend
p5517
I0
sVStatues
p5518
I0
sa(dp5519
VUserName
p5520
V@fc147b5052e2c89d688f3e0b06ca1939
p5521
sVCity
p5522
V\u82cf\u5dde
p5523
sVDisplayName
p5524
g39
sVUniFriend
p5525
I0
sVMemberList
p5526
(lp5527
sVPYQuanPin
p5528
VASUSVclub
p5529
sVRemarkPYInitial
p5530
g39
sVUin
p5531
I0
sVAppAccountFlag
p5532
I0
sVVerifyFlag
p5533
I24
sVProvince
p5534
V\u6c5f\u82cf
p5535
sVKeyWord
p5536
Vgh_
p5537
sVRemarkName
p5538
g39
sVPYInitial
p5539
VASUSVCLUB
p5540
sVChatRoomId
p5541
I0
sVIsOwner
p5542
I0
sVHideInputBarFlag
p5543
I0
sVEncryChatRoomId
p5544
g39
sVAttrStatus
p5545
I0
sVSnsFlag
p5546
I0
sVMemberCount
p5547
I0
sVOwnerUin
p5548
I0
sVAlias
p5549
VATSZ_Vclub
p5550
sVSignature
p5551
V\u534e\u7855\u79d1\u6280\uff08\u82cf\u5dde\uff09\u6709\u9650\u516c\u53f8\u4eba\u529b\u8d44\u6e90\u90e8\u5b98\u65b9\u5fae\u4fe1
p5552
sVContactFlag
p5553
I3
sVNickName
p5554
VASUSVclub
p5555
sVRemarkPYQuanPin
p5556
g39
sVHeadImgUrl
p5557
V/cgi-bin/mmwebwx-bin/webwxgeticon?seq=634765231&username=@fc147b5052e2c89d688f3e0b06ca1939&skey=@crypt_19753c23_05fa7a994bb1092bdd72a1191a0443aa
p5558
sVSex
p5559
I0
sVStarFriend
p5560
I0
sVStatues
p5561
I0
sa(dp5562
VUserName
p5563
V@c7cb1e5d8625e251c74e9e0511ae54ec
p5564
sVCity
p5565
V\u6df1\u5733
p5566
sVDisplayName
p5567
g39
sVUniFriend
p5568
I0
sVMemberList
p5569
(lp5570
sVPYQuanPin
p5571
Vlianfakejizhaopin
p5572
sVRemarkPYInitial
p5573
g39
sVUin
p5574
I0
sVAppAccountFlag
p5575
I0
sVVerifyFlag
p5576
I24
sVProvince
p5577
V\u5e7f\u4e1c
p5578
sVKeyWord
p5579
Vgh_
p5580
sVRemarkName
p5581
g39
sVPYInitial
p5582
VLFKJZP
p5583
sVChatRoomId
p5584
I0
sVIsOwner
p5585
I0
sVHideInputBarFlag
p5586
I0
sVEncryChatRoomId
p5587
g39
sVAttrStatus
p5588
I0
sVSnsFlag
p5589
I0
sVMemberCount
p5590
I0
sVOwnerUin
p5591
I0
sVAlias
p5592
VMTK_Jobs
p5593
sVSignature
p5594
V\u8054\u53d1\u79d1\u6280\u62db\u8058\u8d44\u8baf
p5595
sVContactFlag
p5596
I3
sVNickName
p5597
V\u8054\u53d1\u79d1\u6280\u62db\u8058
p5598
sVRemarkPYQuanPin
p5599
g39
sVHeadImgUrl
p5600
V/cgi-bin/mmwebwx-bin/webwxgeticon?seq=621825682&username=@c7cb1e5d8625e251c74e9e0511ae54ec&skey=@crypt_19753c23_05fa7a994bb1092bdd72a1191a0443aa
p5601
sVSex
p5602
I0
sVStarFriend
p5603
I0
sVStatues
p5604
I0
sa(dp5605
VUserName
p5606
V@92bc7ae9b24002a5a052bc4f57bbb0d3
p5607
sVCity
p5608
V\u6d66\u4e1c\u65b0\u533a
p5609
sVDisplayName
p5610
g39
sVUniFriend
p5611
I0
sVMemberList
p5612
(lp5613
sVPYQuanPin
p5614
Vdadapingtai
p5615
sVRemarkPYInitial
p5616
g39
sVUin
p5617
I0
sVAppAccountFlag
p5618
I0
sVVerifyFlag
p5619
I8
sVProvince
p5620
V\u4e0a\u6d77
p5621
sVKeyWord
p5622
Vgh_
p5623
sVRemarkName
p5624
g39
sVPYInitial
p5625
VDDPT
p5626
sVChatRoomId
p5627
I0
sVIsOwner
p5628
I0
sVHideInputBarFlag
p5629
I0
sVEncryChatRoomId
p5630
g39
sVAttrStatus
p5631
I0
sVSnsFlag
p5632
I0
sVMemberCount
p5633
I0
sVOwnerUin
p5634
I0
sVAlias
p5635
g39
sVSignature
p5636
V\u5e2e\u52a9\u7528\u6237\u4e86\u89e3\u8fbe\u8fbe
p5637
sVContactFlag
p5638
I1
sVNickName
p5639
V\u8fbe\u8fbe\u5e73\u53f0
p5640
sVRemarkPYQuanPin
p5641
g39
sVHeadImgUrl
p5642
V/cgi-bin/mmwebwx-bin/webwxgeticon?seq=640240055&username=@92bc7ae9b24002a5a052bc4f57bbb0d3&skey=@crypt_19753c23_05fa7a994bb1092bdd72a1191a0443aa
p5643
sVSex
p5644
I0
sVStarFriend
p5645
I0
sVStatues
p5646
I0
sa(dp5647
VUserName
p5648
V@2ef0d226a15f1a8fc95e3e0f25416848
p5649
sVCity
p5650
V\u4e1c\u57ce
p5651
sVDisplayName
p5652
g39
sVUniFriend
p5653
I0
sVMemberList
p5654
(lp5655
sVPYQuanPin
p5656
Vyangyikanqiu
p5657
sVRemarkPYInitial
p5658
g39
sVUin
p5659
I0
sVAppAccountFlag
p5660
I0
sVVerifyFlag
p5661
I24
sVProvince
p5662
V\u5317\u4eac
p5663
sVKeyWord
p5664
Vgh_
p5665
sVRemarkName
p5666
g39
sVPYInitial
p5667
VYYKQ
p5668
sVChatRoomId
p5669
I0
sVIsOwner
p5670
I0
sVHideInputBarFlag
p5671
I0
sVEncryChatRoomId
p5672
g39
sVAttrStatus
p5673
I0
sVSnsFlag
p5674
I0
sVMemberCount
p5675
I0
sVOwnerUin
p5676
I0
sVAlias
p5677
Vyangyitalk
p5678
sVSignature
p5679
V\u7bee\u7403\u8bc4\u8bba\u5458\uff0c\u4e2d\u592e\u7535\u89c6\u53f0\u7bee\u7403\u89e3\u8bf4\u987e\u95ee\uff0c\u4f53\u575b\u5468\u62a5\u526f\u603b\u7f16\u3002
p5680
sVContactFlag
p5681
I3
sVNickName
p5682
V\u6768\u6bc5\u4f83\u7403
p5683
sVRemarkPYQuanPin
p5684
g39
sVHeadImgUrl
p5685
V/cgi-bin/mmwebwx-bin/webwxgeticon?seq=640321228&username=@2ef0d226a15f1a8fc95e3e0f25416848&skey=@crypt_19753c23_05fa7a994bb1092bdd72a1191a0443aa
p5686
sVSex
p5687
I0
sVStarFriend
p5688
I0
sVStatues
p5689
I0
sa(dp5690
VUserName
p5691
V@0369aea68d30c68d3b3aafb2b201c735
p5692
sVCity
p5693
V\u671d\u9633
p5694
sVDisplayName
p5695
g39
sVUniFriend
p5696
I0
sVMemberList
p5697
(lp5698
sVPYQuanPin
p5699
Vkeyanjuan
p5700
sVRemarkPYInitial
p5701
g39
sVUin
p5702
I0
sVAppAccountFlag
p5703
I0
sVVerifyFlag
p5704
I24
sVProvince
p5705
V\u5317\u4eac
p5706
sVKeyWord
p5707
Vgh_
p5708
sVRemarkName
p5709
g39
sVPYInitial
p5710
VKYJ
p5711
sVChatRoomId
p5712
I0
sVIsOwner
p5713
I0
sVHideInputBarFlag
p5714
I0
sVEncryChatRoomId
p5715
g39
sVAttrStatus
p5716
I0
sVSnsFlag
p5717
I0
sVMemberCount
p5718
I0
sVOwnerUin
p5719
I0
sVAlias
p5720
Vkeyanquan
p5721
sVSignature
p5722
V\u201c\u79d1\u5b66\u7f8e\u56fd\u4eba\u201d\u4e2d\u6587\u7248\u300a\u73af\u7403\u79d1\u5b66\u300b\u8fd0\u8425\uff0c\u7b2c\u4e00\u65f6\u95f4\u63a8\u9001\u9876\u7ea7\u5b66\u672f\u671f\u520a\u6458\u8981\u3001\u524d\u6cbf\u7814\u7a76\u6210\u679c\u3001\u7cbe\u5f69\u8bb2\u5ea7\u4e0e\u4f1a\u8bae\u62a5\u544a\uff0c\u670d\u52a1\u4e00\u7ebf\u79d1\u7814\u4eba\u5458\u3002
p5723
sVContactFlag
p5724
I3
sVNickName
p5725
V\u79d1\u7814\u5708
p5726
sVRemarkPYQuanPin
p5727
g39
sVHeadImgUrl
p5728
V/cgi-bin/mmwebwx-bin/webwxgeticon?seq=645300572&username=@0369aea68d30c68d3b3aafb2b201c735&skey=@crypt_19753c23_05fa7a994bb1092bdd72a1191a0443aa
p5729
sVSex
p5730
I0
sVStarFriend
p5731
I0
sVStatues
p5732
I0
sa(dp5733
VUserName
p5734
V@ca2320ce5d6f1357b208eb1a509c6a01
p5735
sVCity
p5736
g39
sVDisplayName
p5737
g39
sVUniFriend
p5738
I0
sVMemberList
p5739
(lp5740
sVPYQuanPin
p5741
Vqiyexiaozhushou
p5742
sVRemarkPYInitial
p5743
g39
sVUin
p5744
I0
sVAppAccountFlag
p5745
I0
sVVerifyFlag
p5746
I8
sVProvince
p5747
g39
sVKeyWord
p5748
Vgh_
p5749
sVRemarkName
p5750
g39
sVPYInitial
p5751
VQYXZS
p5752
sVChatRoomId
p5753
I0
sVIsOwner
p5754
I0
sVHideInputBarFlag
p5755
I0
sVEncryChatRoomId
p5756
g39
sVAttrStatus
p5757
I0
sVSnsFlag
p5758
I0
sVMemberCount
p5759
I0
sVOwnerUin
p5760
I0
sVAlias
p5761
g39
sVSignature
p5762
V\u534e\u79d1\u82cf\u5dde
p5763
sVContactFlag
p5764
I3
sVNickName
p5765
V\u4f01\u4e1a\u5c0f\u52a9\u624b
p5766
sVRemarkPYQuanPin
p5767
g39
sVHeadImgUrl
p5768
V/cgi-bin/mmwebwx-bin/webwxgeticon?seq=660985314&username=@ca2320ce5d6f1357b208eb1a509c6a01&skey=@crypt_19753c23_05fa7a994bb1092bdd72a1191a0443aa
p5769
sVSex
p5770
I0
sVStarFriend
p5771
I0
sVStatues
p5772
I0
sa(dp5773
VUserName
p5774
V@82dc167089ee1a68caca993e6e4e0d88
p5775
sVCity
p5776
g39
sVDisplayName
p5777
g39
sVUniFriend
p5778
I0
sVMemberList
p5779
(lp5780
sVPYQuanPin
p5781
Vhuashuokejihuihua
p5782
sVRemarkPYInitial
p5783
g39
sVUin
p5784
I0
sVAppAccountFlag
p5785
I0
sVVerifyFlag
p5786
I8
sVProvince
p5787
g39
sVKeyWord
p5788
Vgh_
p5789
sVRemarkName
p5790
g39
sVPYInitial
p5791
VHSKJHH
p5792
sVChatRoomId
p5793
I0
sVIsOwner
p5794
I0
sVHideInputBarFlag
p5795
I0
sVEncryChatRoomId
p5796
g39
sVAttrStatus
p5797
I0
sVSnsFlag
p5798
I0
sVMemberCount
p5799
I0
sVOwnerUin
p5800
I0
sVAlias
p5801
g39
sVSignature
p5802
V\u6d88\u606f\u670d\u52a1\uff0c\u5e2e\u4f60\u5728\u5fae\u4fe1\u4e2d\u63a5\u6536\u4f01\u4e1a\u5185\u90e8\u804a\u5929\u6d88\u606f\u3002
p5803
sVContactFlag
p5804
I3
sVNickName
p5805
V\u534e\u7855\u79d1\u6280\u4f1a\u8bdd
p5806
sVRemarkPYQuanPin
p5807
g39
sVHeadImgUrl
p5808
V/cgi-bin/mmwebwx-bin/webwxgeticon?seq=660985810&username=@82dc167089ee1a68caca993e6e4e0d88&skey=@crypt_19753c23_05fa7a994bb1092bdd72a1191a0443aa
p5809
sVSex
p5810
I0
sVStarFriend
p5811
I0
sVStatues
p5812
I0
sa(dp5813
VUserName
p5814
V@1c3b84c0b13dc02cfe2a4b8fc3fb65b2
p5815
sVCity
p5816
g39
sVDisplayName
p5817
g39
sVUniFriend
p5818
I0
sVMemberList
p5819
(lp5820
sVPYQuanPin
p5821
Vxinwengonggao
p5822
sVRemarkPYInitial
p5823
g39
sVUin
p5824
I0
sVAppAccountFlag
p5825
I0
sVVerifyFlag
p5826
I8
sVProvince
p5827
g39
sVKeyWord
p5828
Vgh_
p5829
sVRemarkName
p5830
g39
sVPYInitial
p5831
VXWGG
p5832
sVChatRoomId
p5833
I0
sVIsOwner
p5834
I0
sVHideInputBarFlag
p5835
I0
sVEncryChatRoomId
p5836
g39
sVAttrStatus
p5837
I0
sVSnsFlag
p5838
I0
sVMemberCount
p5839
I0
sVOwnerUin
p5840
I0
sVAlias
p5841
g39
sVSignature
p5842
V\u901a\u8fc7\u5fae\u4fe1\u5b8c\u6210\u516c\u53f8\u52a8\u6001\u53d1\u5e03\uff0c\u652f\u6301\u5185\u5d4c\u5fae\u4fe1\u5b9a\u65f6\u7ea2\u5305\uff1b\u5458\u5de5\u751f\u65e5\u795d\u798f\u3001\u5165\u804c\u5468\u5e74\u5173\u6000\u81ea\u52a8\u53d1\u9001\uff1b\u5de5\u8d44\u6761\u4fdd\u5bc6\u53d1\u81f3\u79c1\u4eba\u4fe1\u7bb1\uff1b\u652f\u6301\u52a8\u6001\u5206\u4eab\u81f3\u5916\u90e8\uff0c\u8ba9\u4f01\u4e1a\u6587\u5316\u5efa\u8bbe\u66f4easy\uff01
p5843
sVContactFlag
p5844
I3
sVNickName
p5845
V\u65b0\u95fb\u516c\u544a
p5846
sVRemarkPYQuanPin
p5847
g39
sVHeadImgUrl
p5848
V/cgi-bin/mmwebwx-bin/webwxgeticon?seq=660985812&username=@1c3b84c0b13dc02cfe2a4b8fc3fb65b2&skey=@crypt_19753c23_05fa7a994bb1092bdd72a1191a0443aa
p5849
sVSex
p5850
I0
sVStarFriend
p5851
I0
sVStatues
p5852
I0
sa(dp5853
VUserName
p5854
V@b4acd8f5c1f0ab2e18da7a59dba25348
p5855
sVCity
p5856
g39
sVDisplayName
p5857
g39
sVUniFriend
p5858
I0
sVMemberList
p5859
(lp5860
sVPYQuanPin
p5861
Vwenjuantoupiao
p5862
sVRemarkPYInitial
p5863
g39
sVUin
p5864
I0
sVAppAccountFlag
p5865
I0
sVVerifyFlag
p5866
I8
sVProvince
p5867
g39
sVKeyWord
p5868
Vgh_
p5869
sVRemarkName
p5870
g39
sVPYInitial
p5871
VWJTP
p5872
sVChatRoomId
p5873
I0
sVIsOwner
p5874
I0
sVHideInputBarFlag
p5875
I0
sVEncryChatRoomId
p5876
g39
sVAttrStatus
p5877
I0
sVSnsFlag
p5878
I0
sVMemberCount
p5879
I0
sVOwnerUin
p5880
I0
sVAlias
p5881
g39
sVSignature
p5882
V\u901a\u8fc7\u5fae\u4fe1\u5b8c\u6210\u95ee\u5377\u8bbe\u8ba1\u3001\u6295\u7968\u53d1\u5e03\u3001\u95ee\u5377\u56de\u6536\u548c\u81ea\u52a8\u7edf\u8ba1\u529f\u80fd\uff0c\u652f\u6301\u56fe\u7247\u6295\u7968\u3001\u5355\u9009\u3001\u591a\u9009\u3001\u5f00\u653e\u5f0f\u95ee\u7b54\uff1b\u5b9e\u540d\u6295\u7968\u3001\u533f\u540d\u8c03\u67e5\u7075\u6d3b\u8bbe\u7f6e\uff0c\u8f7b\u677e\u5b8c\u6210\u5728\u7ebf\u8c03\u7814\u6216\u6295\u7968\u3002
p5883
sVContactFlag
p5884
I3
sVNickName
p5885
V\u95ee\u5377\u6295\u7968
p5886
sVRemarkPYQuanPin
p5887
g39
sVHeadImgUrl
p5888
V/cgi-bin/mmwebwx-bin/webwxgeticon?seq=660985815&username=@b4acd8f5c1f0ab2e18da7a59dba25348&skey=@crypt_19753c23_05fa7a994bb1092bdd72a1191a0443aa
p5889
sVSex
p5890
I0
sVStarFriend
p5891
I0
sVStatues
p5892
I0
sa(dp5893
VUserName
p5894
V@005fbeccb1876d26f0f5e2360947a19e
p5895
sVCity
p5896
V\u5e7f\u5dde
p5897
sVDisplayName
p5898
g39
sVUniFriend
p5899
I0
sVMemberList
p5900
(lp5901
sVPYQuanPin
p5902
Vweixinkabao
p5903
sVRemarkPYInitial
p5904
g39
sVUin
p5905
I0
sVAppAccountFlag
p5906
I0
sVVerifyFlag
p5907
I24
sVProvince
p5908
V\u5e7f\u4e1c
p5909
sVKeyWord
p5910
Vgh_
p5911
sVRemarkName
p5912
g39
sVPYInitial
p5913
VWXKB
p5914
sVChatRoomId
p5915
I0
sVIsOwner
p5916
I0
sVHideInputBarFlag
p5917
I0
sVEncryChatRoomId
p5918
g39
sVAttrStatus
p5919
I0
sVSnsFlag
p5920
I0
sVMemberCount
p5921
I0
sVOwnerUin
p5922
I0
sVAlias
p5923
g39
sVSignature
p5924
V\u5e2e\u52a9\u89e3\u51b3\u4f7f\u7528\u5fae\u4fe1\u5361\u5238\u8fc7\u7a0b\u4e2d\u9047\u5230\u7684\u95ee\u9898\uff0c\u6536\u96c6\u5173\u4e8e\u5fae\u4fe1\u5361\u5238\u7684\u53cd\u9988\u5efa\u8bae\u3002
p5925
sVContactFlag
p5926
I1
sVNickName
p5927
V\u5fae\u4fe1\u5361\u5305
p5928
sVRemarkPYQuanPin
p5929
g39
sVHeadImgUrl
p5930
V/cgi-bin/mmwebwx-bin/webwxgeticon?seq=637723093&username=@005fbeccb1876d26f0f5e2360947a19e&skey=@crypt_19753c23_05fa7a994bb1092bdd72a1191a0443aa
p5931
sVSex
p5932
I0
sVStarFriend
p5933
I0
sVStatues
p5934
I0
sa(dp5935
VUserName
p5936
V@f712c656ed82d8a05d8c57d3cb71606c
p5937
sVCity
p5938
g39
sVDisplayName
p5939
g39
sVUniFriend
p5940
I0
sVMemberList
p5941
(lp5942
sVPYQuanPin
p5943
Vweixinzhifu
p5944
sVRemarkPYInitial
p5945
g39
sVUin
p5946
I0
sVAppAccountFlag
p5947
I0
sVVerifyFlag
p5948
I24
sVProvince
p5949
V\u5e7f\u4e1c
p5950
sVKeyWord
p5951
Vgh_
p5952
sVRemarkName
p5953
g39
sVPYInitial
p5954
VWXZF
p5955
sVChatRoomId
p5956
I0
sVIsOwner
p5957
I0
sVHideInputBarFlag
p5958
I0
sVEncryChatRoomId
p5959
g39
sVAttrStatus
p5960
I0
sVSnsFlag
p5961
I0
sVMemberCount
p5962
I0
sVOwnerUin
p5963
I0
sVAlias
p5964
Vwxzhifu
p5965
sVSignature
p5966
V\u5e2e\u52a9\u89e3\u51b3\u5fae\u4fe1\u652f\u4ed8\u4e2d\u9047\u5230\u7684\u56f0\u96be\uff0c\u6536\u96c6\u5173\u4e8e\u5fae\u4fe1\u652f\u4ed8\u7684\u5efa\u8bae\u53cd\u9988\u3002
p5967
sVContactFlag
p5968
I1
sVNickName
p5969
V\u5fae\u4fe1\u652f\u4ed8
p5970
sVRemarkPYQuanPin
p5971
g39
sVHeadImgUrl
p5972
V/cgi-bin/mmwebwx-bin/webwxgeticon?seq=620645212&username=@f712c656ed82d8a05d8c57d3cb71606c&skey=@crypt_19753c23_05fa7a994bb1092bdd72a1191a0443aa
p5973
sVSex
p5974
I0
sVStarFriend
p5975
I0
sVStatues
p5976
I0
sa(dp5977
VUserName
p5978
V@04c1206c714253bcc8b9001086f14bdb
p5979
sVCity
p5980
g39
sVDisplayName
p5981
g39
sVUniFriend
p5982
I0
sVMemberList
p5983
(lp5984
sVPYQuanPin
p5985
Vhuashuokeji
p5986
sVRemarkPYInitial
p5987
g39
sVUin
p5988
I0
sVAppAccountFlag
p5989
I0
sVVerifyFlag
p5990
I24
sVProvince
p5991
g39
sVKeyWord
p5992
Vgh_
p5993
sVRemarkName
p5994
g39
sVPYInitial
p5995
VHSKJ
p5996
sVChatRoomId
p5997
I0
sVIsOwner
p5998
I0
sVHideInputBarFlag
p5999
I0
sVEncryChatRoomId
p6000
g39
sVAttrStatus
p6001
I0
sVSnsFlag
p6002
I0
sVMemberCount
p6003
I0
sVOwnerUin
p6004
I0
sVAlias
p6005
g39
sVSignature
p6006
V\u534e\u7855\u79d1\u6280\uff08\u82cf\u5dde\uff09\u6709\u9650\u516c\u53f8
p6007
sVContactFlag
p6008
I1
sVNickName
p6009
V\u534e\u7855\u79d1\u6280
p6010
sVRemarkPYQuanPin
p6011
g39
sVHeadImgUrl
p6012
V/cgi-bin/mmwebwx-bin/webwxgeticon?seq=660985312&username=@04c1206c714253bcc8b9001086f14bdb&skey=@crypt_19753c23_05fa7a994bb1092bdd72a1191a0443aa
p6013
sVSex
p6014
I0
sVStarFriend
p6015
I0
sVStatues
p6016
I0
sa(dp6017
VUserName
p6018
V@1a58e662c02644eb6e43b0aa6ab86c31
p6019
sVCity
p6020
g39
sVDisplayName
p6021
g39
sVUniFriend
p6022
I0
sVMemberList
p6023
(lp6024
sVPYQuanPin
p6025
Vtongxunlu
p6026
sVRemarkPYInitial
p6027
g39
sVUin
p6028
I0
sVAppAccountFlag
p6029
I0
sVVerifyFlag
p6030
I8
sVProvince
p6031
g39
sVKeyWord
p6032
Vgh_
p6033
sVRemarkName
p6034
g39
sVPYInitial
p6035
VTXL
p6036
sVChatRoomId
p6037
I0
sVIsOwner
p6038
I0
sVHideInputBarFlag
p6039
I0
sVEncryChatRoomId
p6040
g39
sVAttrStatus
p6041
I0
sVSnsFlag
p6042
I0
sVMemberCount
p6043
I0
sVOwnerUin
p6044
I0
sVAlias
p6045
g39
sVSignature
p6046
V\u901a\u8baf\u5f55\u662f\u4f01\u5fae\u5e94\u7528\u7684\u57fa\u7840\uff0c\u901a\u8fc7\u901a\u8baf\u5f55\u53ef\u5feb\u901f\u67e5\u770b\u540c\u4e8b\u8054\u7cfb\u65b9\u5f0f\u3001\u9080\u8bf7\u5916\u90e8\u4eba\u5458\u52a0\u5165\u4f01\u4e1a\u53f7\u3001\u5458\u5de5\u53ef\u66f4\u65b0\u4e2a\u4eba\u8d44\u6599\u7b49\u3002\u8f7b\u677e\u628a\u516c\u53f8\u88c5\u8fdb\u624b\u673a\u91cc\u3002
p6047
sVContactFlag
p6048
I3
sVNickName
p6049
V\u901a\u8baf\u5f55
p6050
sVRemarkPYQuanPin
p6051
g39
sVHeadImgUrl
p6052
V/cgi-bin/mmwebwx-bin/webwxgeticon?seq=660985813&username=@1a58e662c02644eb6e43b0aa6ab86c31&skey=@crypt_19753c23_05fa7a994bb1092bdd72a1191a0443aa
p6053
sVSex
p6054
I0
sVStarFriend
p6055
I0
sVStatues
p6056
I0
sa(dp6057
VUserName
p6058
V@10d0877b3549ad2712bd489b44f2dd96
p6059
sVCity
p6060
V\u6d66\u4e1c\u65b0\u533a
p6061
sVDisplayName
p6062
g39
sVUniFriend
p6063
I0
sVMemberList
p6064
(lp6065
sVPYQuanPin
p6066
Vshihanbing
p6067
sVRemarkPYInitial
p6068
g39
sVUin
p6069
I0
sVAppAccountFlag
p6070
I0
sVVerifyFlag
p6071
I8
sVProvince
p6072
V\u4e0a\u6d77
p6073
sVKeyWord
p6074
Vgh_
p6075
sVRemarkName
p6076
g39
sVPYInitial
p6077
VSHB
p6078
sVChatRoomId
p6079
I0
sVIsOwner
p6080
I0
sVHideInputBarFlag
p6081
I0
sVEncryChatRoomId
p6082
g39
sVAttrStatus
p6083
I0
sVSnsFlag
p6084
I0
sVMemberCount
p6085
I0
sVOwnerUin
p6086
I0
sVAlias
p6087
Vshihanbing2016
p6088
sVSignature
p6089
V\u672c\u8ba2\u9605\u53f7\u610f\u5728\u4e3a\u559c\u6b22\u6211\u7684\u670b\u53cb\u63d0\u4f9b\u514d\u8d39\u670d\u52a1\uff0c\u662f\u4e00\u4e2a\u5f88\u5c0f\u4f17\u7684\u5708\u5b50\uff0c\u4e0d\u559c\u6b22\u6211\u800c\u8bef\u52a0\u5173\u6ce8\u7684\u670b\u53cb\u8bf7\u60a8\u76f4\u63a5\u53d6\u6d88\u5173\u6ce8\u3002\u6536\u5230\u8fd9\u4e2a\u81ea\u52a8\u56de\u590d\u540e\uff0c\u8bf7\u70b9\u51fb\u6211\u7684\u5934\u50cf\uff0c\u5728\u65b0\u9875\u9762\u4e2d\u70b9\u51fb\u201c\u67e5\u770b\u5386\u53f2\u6d88\u606f\u201d\uff08\u8be5\u9875\u504f\u4e0b\u4f4d\u7f6e\uff09\uff0c\u5373\u53ef\u770b\u5230\u6211\u5df2\u53d1\u7684\u5168\u90e8\u6587\u7ae0\u3002
p6090
sVContactFlag
p6091
I3
sVNickName
p6092
V\u65f6\u5bd2\u51b0
p6093
sVRemarkPYQuanPin
p6094
g39
sVHeadImgUrl
p6095
V/cgi-bin/mmwebwx-bin/webwxgeticon?seq=661000320&username=@10d0877b3549ad2712bd489b44f2dd96&skey=@crypt_19753c23_05fa7a994bb1092bdd72a1191a0443aa
p6096
sVSex
p6097
I0
sVStarFriend
p6098
I0
sVStatues
p6099
I0
sa(dp6100
VUserName
p6101
V@746121ffe75ad5e9ed482cc9db0f4ee9
p6102
sVCity
p6103
g39
sVDisplayName
p6104
g39
sVUniFriend
p6105
I0
sVMemberList
p6106
(lp6107
sVPYQuanPin
p6108
Vkedaxunfei
p6109
sVRemarkPYInitial
p6110
g39
sVUin
p6111
I0
sVAppAccountFlag
p6112
I0
sVVerifyFlag
p6113
I24
sVProvince
p6114
V\u5b89\u5fbd
p6115
sVKeyWord
p6116
Vgh_
p6117
sVRemarkName
p6118
g39
sVPYInitial
p6119
VKDXF
p6120
sVChatRoomId
p6121
I0
sVIsOwner
p6122
I0
sVHideInputBarFlag
p6123
I0
sVEncryChatRoomId
p6124
g39
sVAttrStatus
p6125
I0
sVSnsFlag
p6126
I0
sVMemberCount
p6127
I0
sVOwnerUin
p6128
I0
sVAlias
p6129
ViFLYTEK1999
p6130
sVSignature
p6131
V\u53ca\u65f6\u83b7\u53d6\u8baf\u98de\u6700\u65b0\u4fe1\u606f\uff0c\u5145\u5206\u611f\u53d7\u8baf\u98de\u79d1\u6280\u7684\u65e0\u7a77\u9b45\u529b\u3002\u5728\u8fd9\u91cc\uff0c\u6211\u4eec\u4f1a\u8ddf\u60a8\u5206\u4eab\u8baf\u98de\u524d\u6cbf\u79d1\u7814\u8fdb\u5c55\u3001\u4ea7\u54c1\u5e02\u573a\u52a8\u6001\u3001\u4f01\u4e1a\u6587\u5316\u3001\u521b\u4e1a\u6545\u4e8b\u7b49\u3002\u5173\u6ce8\u79d1\u5927\u8baf\u98de\uff0c\u8ba9\u6211\u4eec\u4e00\u8d77\u8fce\u63a5\u4eba\u5de5\u667a\u80fd\u65b0\u65f6\u4ee3\uff01
p6132
sVContactFlag
p6133
I3
sVNickName
p6134
V\u79d1\u5927\u8baf\u98de
p6135
sVRemarkPYQuanPin
p6136
g39
sVHeadImgUrl
p6137
V/cgi-bin/mmwebwx-bin/webwxgeticon?seq=621811570&username=@746121ffe75ad5e9ed482cc9db0f4ee9&skey=@crypt_19753c23_05fa7a994bb1092bdd72a1191a0443aa
p6138
sVSex
p6139
I0
sVStarFriend
p6140
I0
sVStatues
p6141
I0
sa(dp6142
VUserName
p6143
V@a93393d00fee3659a549cedb0c98fe90
p6144
sVCity
p6145
g39
sVDisplayName
p6146
g39
sVUniFriend
p6147
I0
sVMemberList
p6148
(lp6149
sVPYQuanPin
p6150
Vliushu
p6151
sVRemarkPYInitial
p6152
g39
sVUin
p6153
I0
sVAppAccountFlag
p6154
I0
sVVerifyFlag
p6155
I24
sVProvince
p6156
g39
sVKeyWord
p6157
Vgh_
p6158
sVRemarkName
p6159
g39
sVPYInitial
p6160
VLS
p6161
sVChatRoomId
p6162
I0
sVIsOwner
p6163
I0
sVHideInputBarFlag
p6164
I0
sVEncryChatRoomId
p6165
g39
sVAttrStatus
p6166
I0
sVSnsFlag
p6167
I0
sVMemberCount
p6168
I0
sVOwnerUin
p6169
I0
sVAlias
p6170
Vliushupapa
p6171
sVSignature
p6172
V\u8bb2\u6545\u4e8b\u7684\u69b4\u53d4\u3002\u65b0\u6d6a\u5fae\u535a\uff1a@\u4e0a\u69b4\u8fbe\u4eba
p6173
sVContactFlag
p6174
I3
sVNickName
p6175
V\u69b4\u53d4
p6176
sVRemarkPYQuanPin
p6177
g39
sVHeadImgUrl
p6178
V/cgi-bin/mmwebwx-bin/webwxgeticon?seq=661010748&username=@a93393d00fee3659a549cedb0c98fe90&skey=@crypt_19753c23_05fa7a994bb1092bdd72a1191a0443aa
p6179
sVSex
p6180
I0
sVStarFriend
p6181
I0
sVStatues
p6182
I0
sa(dp6183
VUserName
p6184
V@23fcf4327c22cce3a4313d8539bd5e70
p6185
sVCity
p6186
V\u6df1\u5733
p6187
sVDisplayName
p6188
g39
sVUniFriend
p6189
I0
sVMemberList
p6190
(lp6191
sVPYQuanPin
p6192
VQQanquanzhongxin
p6193
sVRemarkPYInitial
p6194
g39
sVUin
p6195
I0
sVAppAccountFlag
p6196
I0
sVVerifyFlag
p6197
I24
sVProvince
p6198
V\u5e7f\u4e1c
p6199
sVKeyWord
p6200
Vqqs
p6201
sVRemarkName
p6202
g39
sVPYInitial
p6203
VQQAQZX
p6204
sVChatRoomId
p6205
I0
sVIsOwner
p6206
I0
sVHideInputBarFlag
p6207
I0
sVEncryChatRoomId
p6208
g39
sVAttrStatus
p6209
I0
sVSnsFlag
p6210
I0
sVMemberCount
p6211
I0
sVOwnerUin
p6212
I0
sVAlias
p6213
g39
sVSignature
p6214
VQQ\u5b89\u5168\u4e2d\u5fc3\u5b98\u65b9\u5fae\u4fe1\u3002\u52aa\u529b\u4fdd\u62a4\u60a8\u7684QQ\u5b89\u5168\uff0c\u5173\u952e\u65f6\u523b\u53ca\u65f6\u63d0\u9192\uff0c\u968f\u65f6\u638c\u63e1\u5e10\u53f7\u5b89\u5168\u52a8\u6001\u3002
p6215
sVContactFlag
p6216
I1
sVNickName
p6217
VQQ\u5b89\u5168\u4e2d\u5fc3
p6218
sVRemarkPYQuanPin
p6219
g39
sVHeadImgUrl
p6220
V/cgi-bin/mmwebwx-bin/webwxgeticon?seq=621816100&username=@23fcf4327c22cce3a4313d8539bd5e70&skey=@crypt_19753c23_05fa7a994bb1092bdd72a1191a0443aa
p6221
sVSex
p6222
I0
sVStarFriend
p6223
I0
sVStatues
p6224
I0
sa(dp6225
VUserName
p6226
V@136c90f2d92b68f1c4f3fc291909e56f
p6227
sVCity
p6228
g39
sVDisplayName
p6229
g39
sVUniFriend
p6230
I0
sVMemberList
p6231
(lp6232
sVPYQuanPin
p6233
Vbotaohui
p6234
sVRemarkPYInitial
p6235
g39
sVUin
p6236
I0
sVAppAccountFlag
p6237
I0
sVVerifyFlag
p6238
I24
sVProvince
p6239
V\u5e7f\u4e1c
p6240
sVKeyWord
p6241
Vgh_
p6242
sVRemarkName
p6243
g39
sVPYInitial
p6244
VBTH
p6245
sVChatRoomId
p6246
I0
sVIsOwner
p6247
I0
sVHideInputBarFlag
p6248
I0
sVEncryChatRoomId
p6249
g39
sVAttrStatus
p6250
I0
sVSnsFlag
p6251
I0
sVMemberCount
p6252
I0
sVOwnerUin
p6253
I0
sVAlias
p6254
Vclub_7daysinn
p6255
sVSignature
p6256
V\u94c2\u6d9b\u4f1a/\u94c2\u6d9b\u65c5\u884c\u5b98\u65b9\u670d\u52a1\u53f7\uff0c\u8ba2\u9152\u5e97\u4eab\u5168\u7f51\u6700\u4f18\u4ef7\uff0c\u8d35\u4e86\u8d54\u53cc\u500d\u5dee\u4ef7\uff01\u8fd8\u53ef\u9884\u8ba2\u5168\u56fd\u8fd13000\u666f\u533a\u95e8\u7968\uff0c\u8d76\u5feb\u5173\u6ce8\u5427\uff01
p6257
sVContactFlag
p6258
I1
sVNickName
p6259
V\u94c2\u6d9b\u4f1a
p6260
sVRemarkPYQuanPin
p6261
g39
sVHeadImgUrl
p6262
V/cgi-bin/mmwebwx-bin/webwxgeticon?seq=620072470&username=@136c90f2d92b68f1c4f3fc291909e56f&skey=@crypt_19753c23_05fa7a994bb1092bdd72a1191a0443aa
p6263
sVSex
p6264
I0
sVStarFriend
p6265
I0
sVStatues
p6266
I0
sa(dp6267
VUserName
p6268
V@33359b3f96f8b498c51609e271431008
p6269
sVCity
p6270
g39
sVDisplayName
p6271
g39
sVUniFriend
p6272
I0
sVMemberList
p6273
(lp6274
sVPYQuanPin
p6275
Vtongshisheou
p6276
sVRemarkPYInitial
p6277
g39
sVUin
p6278
I0
sVAppAccountFlag
p6279
I0
sVVerifyFlag
p6280
I8
sVProvince
p6281
g39
sVKeyWord
p6282
Vgh_
p6283
sVRemarkName
p6284
g39
sVPYInitial
p6285
VTSSO
p6286
sVChatRoomId
p6287
I0
sVIsOwner
p6288
I0
sVHideInputBarFlag
p6289
I0
sVEncryChatRoomId
p6290
g39
sVAttrStatus
p6291
I0
sVSnsFlag
p6292
I0
sVMemberCount
p6293
I0
sVOwnerUin
p6294
I0
sVAlias
p6295
g39
sVSignature
p6296
V\u540c\u4e8b\u5708\u7684BBS\uff0c\u901a\u8fc7\u5fae\u4fe1\u53d1\u8868\u8bdd\u9898\u3001\u53c2\u4e0e\u8bdd\u9898\u8bc4\u8bba\u3001\u4e92\u52a8\u4e0e\u70b9\u8d5e\u3002\u53ef\u533f\u540d\u53d1\u8868\u548c\u8bc4\u8bba\u8bdd\u9898\uff0c\u7cbe\u534e\u5e16\u5b50\u7f6e\u9876\u663e\u793a\uff0c\u5de5\u4f5c\u5a31\u4e50\u4e24\u4e0d\u8bef\u3002
p6297
sVContactFlag
p6298
I515
sVNickName
p6299
V\u540c\u4e8b\u793e\u533a
p6300
sVRemarkPYQuanPin
p6301
g39
sVHeadImgUrl
p6302
V/cgi-bin/mmwebwx-bin/webwxgeticon?seq=660985814&username=@33359b3f96f8b498c51609e271431008&skey=@crypt_19753c23_05fa7a994bb1092bdd72a1191a0443aa
p6303
sVSex
p6304
I0
sVStarFriend
p6305
I0
sVStatues
p6306
I0
sa(dp6307
VUserName
p6308
V@4bba0471cba27fde24012b6758846bb7
p6309
sVCity
p6310
V\u957f\u5b81
p6311
sVDisplayName
p6312
g39
sVUniFriend
p6313
I0
sVMemberList
p6314
(lp6315
sVPYQuanPin
p6316
Vxiechenglvxingwang
p6317
sVRemarkPYInitial
p6318
g39
sVUin
p6319
I0
sVAppAccountFlag
p6320
I0
sVVerifyFlag
p6321
I24
sVProvince
p6322
V\u4e0a\u6d77
p6323
sVKeyWord
p6324
Vgh_
p6325
sVRemarkName
p6326
g39
sVPYInitial
p6327
VXCLXW
p6328
sVChatRoomId
p6329
I0
sVIsOwner
p6330
I0
sVHideInputBarFlag
p6331
I0
sVEncryChatRoomId
p6332
g39
sVAttrStatus
p6333
I0
sVSnsFlag
p6334
I0
sVMemberCount
p6335
I0
sVOwnerUin
p6336
I0
sVAlias
p6337
ViCtrip
p6338
sVSignature
p6339
V\u643a\u7a0b\u5b98\u65b9\u670d\u52a1\u53f7\u3002\u968f\u65f6\u968f\u5730\u4e3a\u60a8\u63d0\u4f9b\u9152\u5e97\u3001\u673a\u7968\u3001\u5ea6\u5047\u3001\u706b\u8f66\u7968\u3001\u6c7d\u8f66\u7968\u7b49\u7684\u9884\u8ba2\u3001\u54a8\u8be2\u670d\u52a1\u3002\u4e5f\u968f\u65f6\u968f\u5730\u606d\u5019\u9a9a\u6270\u3002\u60a8\u7684\u58f0\u97f3\uff0c\u6211\u4eec\u59cb\u7ec8\u7528\u5fc3\u8046\u542c\u3002
p6340
sVContactFlag
p6341
I1
sVNickName
p6342
V\u643a\u7a0b\u65c5\u884c\u7f51
p6343
sVRemarkPYQuanPin
p6344
g39
sVHeadImgUrl
p6345
V/cgi-bin/mmwebwx-bin/webwxgeticon?seq=660980057&username=@4bba0471cba27fde24012b6758846bb7&skey=@crypt_19753c23_05fa7a994bb1092bdd72a1191a0443aa
p6346
sVSex
p6347
I0
sVStarFriend
p6348
I0
sVStatues
p6349
I0
sa(dp6350
VUserName
p6351
V@2f0f8675c77e6e9721380d7cd307a225
p6352
sVCity
p6353
V\u671d\u9633
p6354
sVDisplayName
p6355
g39
sVUniFriend
p6356
I0
sVMemberList
p6357
(lp6358
sVPYQuanPin
p6359
Vluojisaiwei
p6360
sVRemarkPYInitial
p6361
g39
sVUin
p6362
I0
sVAppAccountFlag
p6363
I0
sVVerifyFlag
p6364
I24
sVProvince
p6365
V\u5317\u4eac
p6366
sVKeyWord
p6367
Vgh_
p6368
sVRemarkName
p6369
g39
sVPYInitial
p6370
VLJSW
p6371
sVChatRoomId
p6372
I0
sVIsOwner
p6373
I0
sVHideInputBarFlag
p6374
I0
sVEncryChatRoomId
p6375
g39
sVAttrStatus
p6376
I0
sVSnsFlag
p6377
I0
sVMemberCount
p6378
I0
sVOwnerUin
p6379
I0
sVAlias
p6380
Vluojisw
p6381
sVSignature
p6382
V\u6bcf\u5929\u4e00\u6bb560\u79d2\u8bed\u97f3\uff0c\u4e00\u7bc7\u65b0\u89d2\u5ea6\u770b\u4e16\u754c\u7684\u6587\u7ae0\u3002\u5173\u6ce8\u7f57\u80d6\uff0c\u8ba9\u4f60\u6bcf\u5929\u6bd4\u522b\u4eba\u77e5\u9053\u7684\u591a\u4e00\u4e9b\u3002
p6383
sVContactFlag
p6384
I3
sVNickName
p6385
V\u7f57\u8f91\u601d\u7ef4
p6386
sVRemarkPYQuanPin
p6387
g39
sVHeadImgUrl
p6388
V/cgi-bin/mmwebwx-bin/webwxgeticon?seq=621014717&username=@2f0f8675c77e6e9721380d7cd307a225&skey=@crypt_19753c23_05fa7a994bb1092bdd72a1191a0443aa
p6389
sVSex
p6390
I0
sVStarFriend
p6391
I0
sVStatues
p6392
I0
sa(dp6393
VUserName
p6394
V@56dae8703425e2c6420a07f1a85d9ec7
p6395
sVCity
p6396
g39
sVDisplayName
p6397
g39
sVUniFriend
p6398
I0
sVMemberList
p6399
(lp6400
sVPYQuanPin
p6401
Vjiaozhaoji
p6402
sVRemarkPYInitial
p6403
g39
sVUin
p6404
I0
sVAppAccountFlag
p6405
I0
sVVerifyFlag
p6406
I24
sVProvince
p6407
V\u5317\u4eac
p6408
sVKeyWord
p6409
Vgh_
p6410
sVRemarkName
p6411
g39
sVPYInitial
p6412
VJZJ
p6413
sVChatRoomId
p6414
I0
sVIsOwner
p6415
I0
sVHideInputBarFlag
p6416
I0
sVEncryChatRoomId
p6417
g39
sVAttrStatus
p6418
I0
sVSnsFlag
p6419
I0
sVMemberCount
p6420
I0
sVOwnerUin
p6421
I0
sVAlias
p6422
Vxiaozhaoji_dajie
p6423
sVSignature
p6424
V\u6821\u62db\u5b63\uff0c500\u5f3a\u6821\u62db\u9ad8\u85aaOffer\u6536\u5272\u673a\uff0c\u4e00\u6b3e\u4e13\u4e3a\u6bd5\u4e1a\u751f\u91cf\u8eab\u6253\u9020\u7684\u6c42\u804c\u795e\u5668\uff0c\u6574\u5408\u5168\u7f51\u6821\u62db\u8d44\u6e90\u3001\u7f51\u7533\u597d\u804c\u4f4d\uff0c\u540d\u4f01\u5ba3\u8bb2\u4f1a\uff0c\u53ea\u7528\u94b1\u9014\u9760\u8c31\u7684Offer\u9501\u5b9a\u4f60\uff0c\u5f39\u6307\u4e00\u6325\u95f4\uff0c\u8ba9\u4f60\u50b2\u5a07\u8eba\u7740\u5165\u540d\u4f01\uff01
p6425
sVContactFlag
p6426
I1
sVNickName
p6427
V\u6821\u62db\u5b63
p6428
sVRemarkPYQuanPin
p6429
g39
sVHeadImgUrl
p6430
V/cgi-bin/mmwebwx-bin/webwxgeticon?seq=621820840&username=@56dae8703425e2c6420a07f1a85d9ec7&skey=@crypt_19753c23_05fa7a994bb1092bdd72a1191a0443aa
p6431
sVSex
p6432
I0
sVStarFriend
p6433
I0
sVStatues
p6434
I0
sa(dp6435
VUserName
p6436
V@2bc79411ec636a1c7dc91c28fa50d766
p6437
sVCity
p6438
V\u5357\u4eac
p6439
sVDisplayName
p6440
g39
sVUniFriend
p6441
I0
sVMemberList
p6442
(lp6443
sVPYQuanPin
p6444
Vnajingdapaidang
p6445
sVRemarkPYInitial
p6446
g39
sVUin
p6447
I0
sVAppAccountFlag
p6448
I0
sVVerifyFlag
p6449
I24
sVProvince
p6450
V\u6c5f\u82cf
p6451
sVKeyWord
p6452
Vgh_
p6453
sVRemarkName
p6454
g39
sVPYInitial
p6455
VNJDPD
p6456
sVChatRoomId
p6457
I0
sVIsOwner
p6458
I0
sVHideInputBarFlag
p6459
I0
sVEncryChatRoomId
p6460
g39
sVAttrStatus
p6461
I0
sVSnsFlag
p6462
I0
sVMemberCount
p6463
I0
sVOwnerUin
p6464
I0
sVAlias
p6465
Vnjdpdcs
p6466
sVSignature
p6467
V\u5357\u4eac\u5927\u724c\u6863\u5b98\u65b9\u670d\u52a1\u53f7\uff1a\u54c1\u724c\u63a8\u5e7f\uff0c\u5ba2\u6237\u670d\u52a1\u3002
p6468
sVContactFlag
p6469
I1
sVNickName
p6470
V\u5357\u4eac\u5927\u724c\u6863
p6471
sVRemarkPYQuanPin
p6472
g39
sVHeadImgUrl
p6473
V/cgi-bin/mmwebwx-bin/webwxgeticon?seq=642993002&username=@2bc79411ec636a1c7dc91c28fa50d766&skey=@crypt_19753c23_05fa7a994bb1092bdd72a1191a0443aa
p6474
sVSex
p6475
I0
sVStarFriend
p6476
I0
sVStatues
p6477
I0
sa(dp6478
VUserName
p6479
V@f7beaba324b98a9537792b4656ba34fc
p6480
sVCity
p6481
V\u6d77\u6dc0
p6482
sVDisplayName
p6483
g39
sVUniFriend
p6484
I0
sVMemberList
p6485
(lp6486
sVPYQuanPin
p6487
Vdidichuxingfuwuhao
p6488
sVRemarkPYInitial
p6489
g39
sVUin
p6490
I0
sVAppAccountFlag
p6491
I0
sVVerifyFlag
p6492
I24
sVProvince
p6493
V\u5317\u4eac
p6494
sVKeyWord
p6495
Vgh_
p6496
sVRemarkName
p6497
g39
sVPYInitial
p6498
VDDCXFWH
p6499
sVChatRoomId
p6500
I0
sVIsOwner
p6501
I0
sVHideInputBarFlag
p6502
I0
sVEncryChatRoomId
p6503
g39
sVAttrStatus
p6504
I0
sVSnsFlag
p6505
I0
sVMemberCount
p6506
I0
sVOwnerUin
p6507
I0
sVAlias
p6508
Vdididachegf
p6509
sVSignature
p6510
V\u6ef4\u6ef4\u51fa\u884c\u662f\u5168\u7403\u6700\u5927\u7684\u4e00\u7ad9\u5f0f\u591a\u5143\u5316\u51fa\u884c\u5e73\u53f0\u3002\u6ef4\u6ef4\u5728\u4e2d\u56fd400\u4f59\u5ea7\u57ce\u5e02\u4e3a\u8fd13\u4ebf\u7528\u6237\u63d0\u4f9b\u51fa\u79df\u8f66\u53ec\u8f66\u3001\u4e13\u5feb\u8f66\u3001\u987a\u98ce\u8f66\u3001\u4ee3\u9a7e\u3001\u8bd5\u9a7e\u3001\u516c\u4ea4\u548c\u4f01\u4e1a\u7ea7\u7b49\u5168\u9762\u51fa\u884c\u670d\u52a1\u3002
p6511
sVContactFlag
p6512
I1
sVNickName
p6513
V\u6ef4\u6ef4\u51fa\u884c\u670d\u52a1\u53f7
p6514
sVRemarkPYQuanPin
p6515
g39
sVHeadImgUrl
p6516
V/cgi-bin/mmwebwx-bin/webwxgeticon?seq=632272961&username=@f7beaba324b98a9537792b4656ba34fc&skey=@crypt_19753c23_05fa7a994bb1092bdd72a1191a0443aa
p6517
sVSex
p6518
I0
sVStarFriend
p6519
I0
sVStatues
p6520
I0
sa(dp6521
VUserName
p6522
V@7d3e947ba16c2caeb58ede1daae131ce
p6523
sVCity
p6524
V\u5f90\u6c47
p6525
sVDisplayName
p6526
g39
sVUniFriend
p6527
I0
sVMemberList
p6528
(lp6529
sVPYQuanPin
p6530
Vhanbaowangzhongguo
p6531
sVRemarkPYInitial
p6532
g39
sVUin
p6533
I0
sVAppAccountFlag
p6534
I0
sVVerifyFlag
p6535
I24
sVProvince
p6536
V\u4e0a\u6d77
p6537
sVKeyWord
p6538
Vgh_
p6539
sVRemarkName
p6540
g39
sVPYInitial
p6541
VHBWZG
p6542
sVChatRoomId
p6543
I0
sVIsOwner
p6544
I0
sVHideInputBarFlag
p6545
I0
sVEncryChatRoomId
p6546
g39
sVAttrStatus
p6547
I0
sVSnsFlag
p6548
I0
sVMemberCount
p6549
I0
sVOwnerUin
p6550
I0
sVAlias
p6551
VHBW1954
p6552
sVSignature
p6553
V\u6c49\u5821\u738bBurger King\u5c31\u662f\u4e00\u4e2a\u75af\u72c2\u7684\u7f8e\u98df\u521b\u9020\u8005\uff0c\u6211\u4eec\u7528\u4e0d\u540c\u7684\u7406\u5ff5\u4ee5\u53ca\u667a\u6167\uff0c\u4e00\u76f4\u81f4\u529b\u4e8e\u521b\u9020\u51fa\u66f4\u591a\u975e\u6bd4\u5bfb\u5e38\u7684\u7f8e\u98df\uff0c\u8fd9\u91cc\u662f\u6c49\u5821\u738b\u5fae\u4fe1\u5c0f\u5e97\uff0c\u5728\u8fd9\u91cc\u4f60\u53ef\u4ee5\u4e86\u89e3\u6c49\u5821\u738b\u7684\u5404\u8272\u7f8e\u98df\u3001\u70ed\u529b\u4f18\u60e0\u3001\u95e8\u5e97\u5730\u5740\u7b49\u8d44\u8baf\u3002
p6554
sVContactFlag
p6555
I1
sVNickName
p6556
V\u6c49\u5821\u738b\u4e2d\u56fd
p6557
sVRemarkPYQuanPin
p6558
g39
sVHeadImgUrl
p6559
V/cgi-bin/mmwebwx-bin/webwxgeticon?seq=660998800&username=@7d3e947ba16c2caeb58ede1daae131ce&skey=@crypt_19753c23_05fa7a994bb1092bdd72a1191a0443aa
p6560
sVSex
p6561
I0
sVStarFriend
p6562
I0
sVStatues
p6563
I0
sa(dp6564
VUserName
p6565
V@2ffbfd9624e802e503e5ad9b1416bca8
p6566
sVCity
p6567
V\u829c\u6e56
p6568
sVDisplayName
p6569
g39
sVUniFriend
p6570
I0
sVMemberList
p6571
(lp6572
sVPYQuanPin
p6573
Vanhuiyuntaiwuhuqichezhan
p6574
sVRemarkPYInitial
p6575
g39
sVUin
p6576
I0
sVAppAccountFlag
p6577
I0
sVVerifyFlag
p6578
I24
sVProvince
p6579
V\u5b89\u5fbd
p6580
sVKeyWord
p6581
Vgh_
p6582
sVRemarkName
p6583
g39
sVPYInitial
p6584
VAHYTWHQCZ
p6585
sVChatRoomId
p6586
I0
sVIsOwner
p6587
I0
sVHideInputBarFlag
p6588
I0
sVEncryChatRoomId
p6589
g39
sVAttrStatus
p6590
I0
sVSnsFlag
p6591
I0
sVMemberCount
p6592
I0
sVOwnerUin
p6593
I0
sVAlias
p6594
Vwhyuntai
p6595
sVSignature
p6596
V\u6b64\u516c\u5171\u5fae\u4fe1\u5e73\u53f0\u4e13\u4e3a\u65c5\u5ba2\u63d0\u4f9b\u73ed\u6b21\u67e5\u8be2\u3001\u5fae\u4fe1\u552e\u7968\u3001\u5efa\u8bae\u3001\u6295\u8bc9\u7b49\u670d\u52a1\u3002\u6211\u4eec\u5c06\u4ee5\u6700\u771f\u8bda\u7684\u5fc3\u7aed\u8bda\u4e3a\u60a8\u670d\u52a1\u3002
p6597
sVContactFlag
p6598
I1
sVNickName
p6599
V\u5b89\u5fbd\u8fd0\u6cf0\u829c\u6e56\u6c7d\u8f66\u7ad9
p6600
sVRemarkPYQuanPin
p6601
g39
sVHeadImgUrl
p6602
V/cgi-bin/mmwebwx-bin/webwxgeticon?seq=637726324&username=@2ffbfd9624e802e503e5ad9b1416bca8&skey=@crypt_19753c23_05fa7a994bb1092bdd72a1191a0443aa
p6603
sVSex
p6604
I0
sVStarFriend
p6605
I0
sVStatues
p6606
I0
sa(dp6607
VUserName
p6608
V@929fa87a77447e2b9fe86013b02193b2
p6609
sVCity
p6610
V\u957f\u5b81
p6611
sVDisplayName
p6612
g39
sVUniFriend
p6613
I0
sVMemberList
p6614
(lp6615
sVPYQuanPin
p6616
Vchunqiuhangkong
p6617
sVRemarkPYInitial
p6618
g39
sVUin
p6619
I0
sVAppAccountFlag
p6620
I0
sVVerifyFlag
p6621
I24
sVProvince
p6622
V\u4e0a\u6d77
p6623
sVKeyWord
p6624
Vgh_
p6625
sVRemarkName
p6626
g39
sVPYInitial
p6627
VCQHK
p6628
sVChatRoomId
p6629
I0
sVIsOwner
p6630
I0
sVHideInputBarFlag
p6631
I0
sVEncryChatRoomId
p6632
g39
sVAttrStatus
p6633
I0
sVSnsFlag
p6634
I0
sVMemberCount
p6635
I0
sVOwnerUin
p6636
I0
sVAlias
p6637
Vspringairlines
p6638
sVSignature
p6639
V\u6625\u79cb\u822a\u7a7a\u7279\u4ef7\u673a\u7968\u5b98\u65b9\u9884\u8ba2\u5e73\u53f0\uff0c\u5b9e\u65f6\u51fa\u7968\uff0c\u516c\u4f17\u53f7\u8d2d\u673a\u7968\u62bd\u5956\u6d3b\u52a8\u706b\u70ed\u8fdb\u884c\u4e2d\uff0c\u5373\u523b\u5173\u6ce8\u6210\u4e3a\u6625\u79cb\u822a\u7a7a\u516c\u4f17\u53f7\u7c89\u4e1d\uff0c\u53c2\u52a0\u6625\u822a\u7c89\u4e1d\u4e13\u5c5e\u673a\u7968\u4fc3\u9500\u6d3b\u52a8\uff0c1\u5143\u8d77\u673a\u7968\u8ba9\u4f60\u73a9\u5230\u723d\uff01\u4f4e\u4ef7\u673a\u7968\u53ea\u5728\u5b98\u65b9\u6709\u552e\uff01
p6640
sVContactFlag
p6641
I1
sVNickName
p6642
V\u6625\u79cb\u822a\u7a7a
p6643
sVRemarkPYQuanPin
p6644
g39
sVHeadImgUrl
p6645
V/cgi-bin/mmwebwx-bin/webwxgeticon?seq=660985345&username=@929fa87a77447e2b9fe86013b02193b2&skey=@crypt_19753c23_05fa7a994bb1092bdd72a1191a0443aa
p6646
sVSex
p6647
I0
sVStarFriend
p6648
I0
sVStatues
p6649
I0
sa(dp6650
VUserName
p6651
V@67d4188db55336e8f3cd526fba99d61f
p6652
sVCity
p6653
V\u957f\u5b81
p6654
sVDisplayName
p6655
g39
sVUniFriend
p6656
I0
sVMemberList
p6657
(lp6658
sVPYQuanPin
p6659
Vkubeizhihuishenghuo
p6660
sVRemarkPYInitial
p6661
g39
sVUin
p6662
I0
sVAppAccountFlag
p6663
I0
sVVerifyFlag
p6664
I24
sVProvince
p6665
V\u4e0a\u6d77
p6666
sVKeyWord
p6667
Vgh_
p6668
sVRemarkName
p6669
g39
sVPYInitial
p6670
VKBZHSH
p6671
sVChatRoomId
p6672
I0
sVIsOwner
p6673
I0
sVHideInputBarFlag
p6674
I0
sVEncryChatRoomId
p6675
g39
sVAttrStatus
p6676
I0
sVSnsFlag
p6677
I0
sVMemberCount
p6678
I0
sVOwnerUin
p6679
I0
sVAlias
p6680
g39
sVSignature
p6681
V\u54a8\u8be2\u670d\u52a1
p6682
sVContactFlag
p6683
I1
sVNickName
p6684
V\u9177\u8d1d\u667a\u6167\u751f\u6d3b
p6685
sVRemarkPYQuanPin
p6686
g39
sVHeadImgUrl
p6687
V/cgi-bin/mmwebwx-bin/webwxgeticon?seq=660988369&username=@67d4188db55336e8f3cd526fba99d61f&skey=@crypt_19753c23_05fa7a994bb1092bdd72a1191a0443aa
p6688
sVSex
p6689
I0
sVStarFriend
p6690
I0
sVStatues
p6691
I0
sa(dp6692
VUserName
p6693
V@2a9598eb078175392f501496ce867a57
p6694
sVCity
p6695
V\u5f90\u6c47
p6696
sVDisplayName
p6697
g39
sVUniFriend
p6698
I0
sVMemberList
p6699
(lp6700
sVPYQuanPin
p6701
Vkendeji
p6702
sVRemarkPYInitial
p6703
g39
sVUin
p6704
I0
sVAppAccountFlag
p6705
I0
sVVerifyFlag
p6706
I24
sVProvince
p6707
V\u4e0a\u6d77
p6708
sVKeyWord
p6709
Vgh_
p6710
sVRemarkName
p6711
g39
sVPYInitial
p6712
VKDJ
p6713
sVChatRoomId
p6714
I0
sVIsOwner
p6715
I0
sVHideInputBarFlag
p6716
I0
sVEncryChatRoomId
p6717
g39
sVAttrStatus
p6718
I0
sVSnsFlag
p6719
I0
sVMemberCount
p6720
I0
sVOwnerUin
p6721
I0
sVAlias
p6722
Vkfczhongguo
p6723
sVSignature
p6724
V\u968f\u65f6\u968f\u5730\u83b7\u53d6KFC\u4f18\u60e0\u5238\u3001\u6700\u65b0\u4ea7\u54c1\u548c\u6d3b\u52a8\u4fe1\u606f
p6725
sVContactFlag
p6726
I1
sVNickName
p6727
V\u80af\u5fb7\u57fa
p6728
sVRemarkPYQuanPin
p6729
g39
sVHeadImgUrl
p6730
V/cgi-bin/mmwebwx-bin/webwxgeticon?seq=660985575&username=@2a9598eb078175392f501496ce867a57&skey=@crypt_19753c23_05fa7a994bb1092bdd72a1191a0443aa
p6731
sVSex
p6732
I0
sVStarFriend
p6733
I0
sVStatues
p6734
I0
sa(dp6735
VUserName
p6736
V@4a0f96599321c5e549dd3be5df692d15
p6737
sVCity
p6738
V\u957f\u5b81
p6739
sVDisplayName
p6740
g39
sVUniFriend
p6741
I0
sVMemberList
p6742
(lp6743
sVPYQuanPin
p6744
Vdazhongdianping
p6745
sVRemarkPYInitial
p6746
g39
sVUin
p6747
I0
sVAppAccountFlag
p6748
I0
sVVerifyFlag
p6749
I24
sVProvince
p6750
V\u4e0a\u6d77
p6751
sVKeyWord
p6752
Vgh_
p6753
sVRemarkName
p6754
g39
sVPYInitial
p6755
VDZDP
p6756
sVChatRoomId
p6757
I0
sVIsOwner
p6758
I0
sVHideInputBarFlag
p6759
I0
sVEncryChatRoomId
p6760
g39
sVAttrStatus
p6761
I0
sVSnsFlag
p6762
I0
sVMemberCount
p6763
I0
sVOwnerUin
p6764
I0
sVAlias
p6765
Vdptuan
p6766
sVSignature
p6767
V\u5927\u4f17\u70b9\u8bc4\u670d\u52a1\u53f7\uff0c\u4e3a\u4f60\u63d0\u4f9b\u8eab\u8fb9\u7684\u5403\u559d\u73a9\u4e50\u4fe1\u606f\uff0c\u548c\u4f18\u8d28\u4f4e\u4ef7\u7684\u56e2\u8d2d\u670d\u52a1\u3002\u6700\u4e13\u4e1a\u7684\u4e2d\u56fd\u57ce\u5e02\u6d88\u8d39\u6307\u5357\uff1a\u9910\u9986\u7f8e\u98df\u3001\u8d2d\u7269\u3001\u7535\u5f71\u3001\u9152\u5e97\u3001KTV\u3001\u5916\u5356\u5404\u79cd\u4f18\u60e0\u4e00\u5e94\u4ff1\u5168\uff0c\u8fd8\u6709\u6700\u5b9e\u60e0\u6700\u65b0\u6f6e\u7684\u6d3b\u52a8\u8d44\u8baf\u3002
p6768
sVContactFlag
p6769
I3
sVNickName
p6770
V\u5927\u4f17\u70b9\u8bc4
p6771
sVRemarkPYQuanPin
p6772
g39
sVHeadImgUrl
p6773
V/cgi-bin/mmwebwx-bin/webwxgeticon?seq=677368848&username=@4a0f96599321c5e549dd3be5df692d15&skey=@crypt_19753c23_05fa7a994bb1092bdd72a1191a0443aa
p6774
sVSex
p6775
I0
sVStarFriend
p6776
I0
sVStatues
p6777
I0
sa(dp6778
VUserName
p6779
V@5523effa5b1b68da65ed7869fab54d9e
p6780
sVCity
p6781
V\u82cf\u5dde
p6782
sVDisplayName
p6783
g39
sVUniFriend
p6784
I0
sVMemberList
p6785
(lp6786
sVPYQuanPin
p6787
Vsuzhouyouhui
p6788
sVRemarkPYInitial
p6789
g39
sVUin
p6790
I0
sVAppAccountFlag
p6791
I0
sVVerifyFlag
p6792
I8
sVProvince
p6793
V\u6c5f\u82cf
p6794
sVKeyWord
p6795
Vgh_
p6796
sVRemarkName
p6797
g39
sVPYInitial
p6798
VSZYH
p6799
sVChatRoomId
p6800
I0
sVIsOwner
p6801
I0
sVHideInputBarFlag
p6802
I0
sVEncryChatRoomId
p6803
g39
sVAttrStatus
p6804
I0
sVSnsFlag
p6805
I0
sVMemberCount
p6806
I0
sVOwnerUin
p6807
I0
sVAlias
p6808
Vszyhfw
p6809
sVSignature
p6810
V\u641c\u7f57\u82cf\u5dde\u5404\u5927\u4f18\u60e0\u4fe1\u606f\uff0c\u8ba9\u4f60\u7684\u751f\u6d3b\u60e0\u8d77\u6765
p6811
sVContactFlag
p6812
I1
sVNickName
p6813
V\u82cf\u5dde\u4f18\u60e0
p6814
sVRemarkPYQuanPin
p6815
g39
sVHeadImgUrl
p6816
V/cgi-bin/mmwebwx-bin/webwxgeticon?seq=660986297&username=@5523effa5b1b68da65ed7869fab54d9e&skey=@crypt_19753c23_05fa7a994bb1092bdd72a1191a0443aa
p6817
sVSex
p6818
I0
sVStarFriend
p6819
I0
sVStatues
p6820
I0
sa(dp6821
VUserName
p6822
V@7c023b3c103423c06533c6f55cd41661
p6823
sVCity
p6824
g39
sVDisplayName
p6825
g39
sVUniFriend
p6826
I0
sVMemberList
p6827
(lp6828
sVPYQuanPin
p6829
Vzhishibaike
p6830
sVRemarkPYInitial
p6831
g39
sVUin
p6832
I0
sVAppAccountFlag
p6833
I0
sVVerifyFlag
p6834
I8
sVProvince
p6835
g39
sVKeyWord
p6836
Vgh_
p6837
sVRemarkName
p6838
g39
sVPYInitial
p6839
VZSBK
p6840
sVChatRoomId
p6841
I0
sVIsOwner
p6842
I0
sVHideInputBarFlag
p6843
I0
sVEncryChatRoomId
p6844
g39
sVAttrStatus
p6845
I0
sVSnsFlag
p6846
I0
sVMemberCount
p6847
I0
sVOwnerUin
p6848
I0
sVAlias
p6849
g39
sVSignature
p6850
V\u516c\u53f8\u77e5\u8bc6\u5e93\u3001\u6587\u6863\u5e93\u548c\u4ea7\u54c1\u5e93\u3002\u901a\u8fc7\u540e\u53f0\u4e0a\u4f20\u516c\u53f8\u5236\u5ea6\u6587\u4ef6\u3001\u4ea7\u54c1\u8d44\u6599\u3001\u4f01\u4e1a\u5185\u520a\u7b49\uff0c\u5458\u5de5\u53ef\u968f\u65f6\u968f\u5730\u67e5\u8be2\u3001\u5171\u4eab\u77e5\u8bc6\u3001\u53c2\u4e0e\u5728\u7ebf\u57f9\u8bad\uff1b\u652f\u6301\u5bf9\u5916\u5206\u4eab\uff0c\u5feb\u901f\u8fdb\u884c\u54c1\u724c\u5ba3\u4f20\u548c\u5e02\u573a\u63a8\u5e7f\u3002
p6851
sVContactFlag
p6852
I3
sVNickName
p6853
V\u77e5\u8bc6\u767e\u79d1
p6854
sVRemarkPYQuanPin
p6855
g39
sVHeadImgUrl
p6856
V/cgi-bin/mmwebwx-bin/webwxgeticon?seq=660985811&username=@7c023b3c103423c06533c6f55cd41661&skey=@crypt_19753c23_05fa7a994bb1092bdd72a1191a0443aa
p6857
sVSex
p6858
I0
sVStarFriend
p6859
I0
sVStatues
p6860
I0
sa(dp6861
VUserName
p6862
V@6efa8718b70e262ddece89c96413587a
p6863
sVCity
p6864
g39
sVDisplayName
p6865
g39
sVUniFriend
p6866
I0
sVMemberList
p6867
(lp6868
sVPYQuanPin
p6869
Vweipazhuoyouzhushou
p6870
sVRemarkPYInitial
p6871
g39
sVUin
p6872
I0
sVAppAccountFlag
p6873
I0
sVVerifyFlag
p6874
I24
sVProvince
p6875
V\u5317\u4eac
p6876
sVKeyWord
p6877
Vgh_
p6878
sVRemarkName
p6879
g39
sVPYInitial
p6880
VWPZYZS
p6881
sVChatRoomId
p6882
I0
sVIsOwner
p6883
I0
sVHideInputBarFlag
p6884
I0
sVEncryChatRoomId
p6885
g39
sVAttrStatus
p6886
I0
sVSnsFlag
p6887
I0
sVMemberCount
p6888
I0
sVOwnerUin
p6889
I0
sVAlias
p6890
Vzhuoyouzhushou
p6891
sVSignature
p6892
V* \u65e0\u9700\u684c\u6e38\u5361\u724c\u3001\u65e0\u9700\u7eb8\u548c\u7b14\uff0c\u5c31\u53ef\u4ee5\u548c\u670b\u53cb\u9762\u5bf9\u9762\u73a9\u8c01\u662f\u5367\u5e95\u3001\u6740\u4eba\u6e38\u620f\u3001\u72fc\u4eba\u6e38\u620f\uff01    * \u5728\u5fae\u4fe1\u7fa4\u91cc\u548c\u7f8e\u5973\u5e05\u54e5\u73a9\u8c01\u662f\u5367\u5e95\u3001\u771f\u5fc3\u8bdd\u5927\u5192\u9669    *\u3010\u5fae\u6e38\u620f\u3011\u5fae\u4fe1\u4e0a\u88ab\u75af\u8f6c\u5343\u4e07\u6b21\u7684\u5c0f\u6e38\u620f
p6893
sVContactFlag
p6894
I1
sVNickName
p6895
V\u5fae\u6d3e\u684c\u6e38\u52a9\u624b
p6896
sVRemarkPYQuanPin
p6897
g39
sVHeadImgUrl
p6898
V/cgi-bin/mmwebwx-bin/webwxgeticon?seq=661004861&username=@6efa8718b70e262ddece89c96413587a&skey=@crypt_19753c23_05fa7a994bb1092bdd72a1191a0443aa
p6899
sVSex
p6900
I0
sVStarFriend
p6901
I0
sVStatues
p6902
I0
sa(dp6903
VUserName
p6904
V@2c24c88f6aeb40a82c500ab32a5c50b3
p6905
sVCity
p6906
g39
sVDisplayName
p6907
g39
sVUniFriend
p6908
I0
sVMemberList
p6909
(lp6910
sVPYQuanPin
p6911
Vqiyehuodong
p6912
sVRemarkPYInitial
p6913
g39
sVUin
p6914
I0
sVAppAccountFlag
p6915
I0
sVVerifyFlag
p6916
I8
sVProvince
p6917
g39
sVKeyWord
p6918
Vgh_
p6919
sVRemarkName
p6920
g39
sVPYInitial
p6921
VQYHD
p6922
sVChatRoomId
p6923
I0
sVIsOwner
p6924
I0
sVHideInputBarFlag
p6925
I0
sVEncryChatRoomId
p6926
g39
sVAttrStatus
p6927
I0
sVSnsFlag
p6928
I0
sVMemberCount
p6929
I0
sVOwnerUin
p6930
I0
sVAlias
p6931
g39
sVSignature
p6932
V\u6d3b\u52a8\u73b0\u573a\u62bd\u5956\u3001\u5927\u5c4f\u5e55\u4e0a\u5899\uff0c\u8ba9\u5e74\u4f1a\u3001\u6d3b\u52a8\u548c\u5927\u578b\u5c55\u4f1a\u66f4\u52a0\u9ad8\u5927\u4e0a\uff01\u5fae\u4fe1\u6216\u7ba1\u7406\u540e\u53f0\u53d1\u8d77\u6d3b\u52a8\uff0c\u5fae\u4fe1\u62a5\u540d\uff0c\u5b9a\u671f\u81ea\u52a8\u901a\u77e5\uff0c\u4eba\u6570\u81ea\u52a8\u7edf\u8ba1\uff0c\u8fd8\u652f\u6301\u5728\u7ebfAA\u6536\u6b3e\uff0c\u8ba9\u6d3b\u52a8\u7ec4\u7ec7\u66f4\u52a0\u7b80\u5355\u6709\u8da3\u3002
p6933
sVContactFlag
p6934
I515
sVNickName
p6935
V\u4f01\u4e1a\u6d3b\u52a8
p6936
sVRemarkPYQuanPin
p6937
g39
sVHeadImgUrl
p6938
V/cgi-bin/mmwebwx-bin/webwxgeticon?seq=660985809&username=@2c24c88f6aeb40a82c500ab32a5c50b3&skey=@crypt_19753c23_05fa7a994bb1092bdd72a1191a0443aa
p6939
sVSex
p6940
I0
sVStarFriend
p6941
I0
sVStatues
p6942
I0
sa(dp6943
VUserName
p6944
V@c6a007eecc08aae665db98f194af2b06
p6945
sVCity
p6946
V\u6d66\u4e1c\u65b0\u533a
p6947
sVDisplayName
p6948
g39
sVUniFriend
p6949
I0
sVMemberList
p6950
(lp6951
sVPYQuanPin
p6952
Vyiweishi
p6953
sVRemarkPYInitial
p6954
g39
sVUin
p6955
I0
sVAppAccountFlag
p6956
I0
sVVerifyFlag
p6957
I24
sVProvince
p6958
V\u4e0a\u6d77
p6959
sVKeyWord
p6960
Vgh_
p6961
sVRemarkName
p6962
g39
sVPYInitial
p6963
VYWS
p6964
sVChatRoomId
p6965
I0
sVIsOwner
p6966
I0
sVHideInputBarFlag
p6967
I0
sVEncryChatRoomId
p6968
g39
sVAttrStatus
p6969
I0
sVSnsFlag
p6970
I0
sVMemberCount
p6971
I0
sVOwnerUin
p6972
I0
sVAlias
p6973
Vyiweishixidikeji
p6974
sVSignature
p6975
V\u63d0\u4f9b\u4f18\u8d28\u3001\u4fbf\u6377\u3001\u5b9e\u60e0\u7684\u5e72\u6d17\u670d\u52a1\uff0c\u624b\u673a\u4e0b\u5355\uff0c\u4e0a\u95e8\u53d6\u9001\u3002\u63d0\u4f9b\u6d17\u8863\u3001\u6d17\u978b\u3001\u6d17\u5bb6\u7eba\u3001\u5962\u4f88\u54c1\u517b\u62a4\u7b49\u670d\u52a1\u3002
p6976
sVContactFlag
p6977
I3
sVNickName
p6978
V\u8863\u536b\u58eb
p6979
sVRemarkPYQuanPin
p6980
g39
sVHeadImgUrl
p6981
V/cgi-bin/mmwebwx-bin/webwxgeticon?seq=677377739&username=@c6a007eecc08aae665db98f194af2b06&skey=@crypt_19753c23_05fa7a994bb1092bdd72a1191a0443aa
p6982
sVSex
p6983
I0
sVStarFriend
p6984
I0
sVStatues
p6985
I0
sassS'loginInfo'
p6986
(dp6987
S'SyncKey'
p6988
(dp6989
VCount
p6990
I4
sVList
p6991
(lp6992
(dp6993
VVal
p6994
I677377742
sVKey
p6995
I1
sa(dp6996
VVal
p6997
I677377874
sVKey
p6998
I2
sa(dp6999
VVal
p7000
I677377744
sVKey
p7001
I3
sa(dp7002
VVal
p7003
I1488686401
sVKey
p7004
I1000
sassS'syncUrl'
p7005
S'https://webpush.wx.qq.com/cgi-bin/mmwebwx-bin'
p7006
sS'skey'
p7007
V@crypt_19753c23_05fa7a994bb1092bdd72a1191a0443aa
p7008
sS'wxuin'
p7009
V1528367960
p7010
sS'synckey'
p7011
S'1_677377742|2_677377874|3_677377744|1000_1488686401'
p7012
sS'url'
p7013
Vhttps://wx.qq.com/cgi-bin/mmwebwx-bin
p7014
sS'pass_ticket'
p7015
VouNTz4JWGAgcuL47jsHhBQyj56Wycp02Rnc8RfbBJ7T1gNuyVPXRIP9u6QUMfraY
p7016
sS'wxsid'
p7017
V4UwN0y7vYnzm2dPu
p7018
sS'User'
p7019
g26
sS'InviteStartCount'
p7020
I40
sS'fileUrl'
p7021
S'https://file.wx.qq.com/cgi-bin/mmwebwx-bin'
p7022
sS'BaseRequest'
p7023
(dp7024
g68
g7010
sS'Skey'
p7025
g7008
sS'DeviceID'
p7026
g7016
sS'Sid'
p7027
g7018
ssS'deviceid'
p7028
S'e731299991077592'
p7029
ss.